(lp0
(lp1
VEmpID
p2
aVName\u000a\u59d3\u540d
p3
aVPin Yin\u000a\u62fc\u97f3
p4
aVStatus\u000a\u72b6\u6001
p5
aVwork type     \u000a\u5de5\u4f5c\u7c7b\u578b
p6
aVWork Shift
p7
aVExcept working days
p8
aVActual working days\u000a \u672c\u6708\u5b9e\u5230\u5929\u6570
p9
aV\u8865\u8d34\u5929\u6570
p10
aV\u8865\u8d34\u6263\u9664\u5929\u6570
p11
aVTotal Leave days\u000a\u8bf7\u5047\u5929\u6570
p12
aVPersonal Leave \u000a\u4e8b\u5047
p13
aVSick Leave\u000a\u75c5\u5047
p14
aVAnnual Leave\u000a\u5e74\u5047
p15
aVPaid Leave\u000a\u5176\u4ed6
p16
aVSwap-off Day\u000a\u8c03\u4f11
p17
aV\u5e26\u85aa\u5047
p18
aVLate (1-15mins) \u000a
p19
aVlate(16-60min)
p20
aVLate (60+mins)   \u000a\u8fdf\u5230\uff0860\u5206\u949f\u4ee5\u4e0a\uff09
p21
aVFull Attendance\u000a\u5168\u52e4\u000a(Y/N)
p22
aV\u65f7\u5de5\u000aabsenteeism
p23
aVDeduction\u000a\u6263\u6b3e\uff08Day\uff09
p24
aV\u8003\u52e4\u5904\u7406
p25
aV15\u5e74\u5269\u4f59\u5e74\u5047
p26
aV\u8fdf\u5230\u65f6\u957f-\u56e2\u961f
p27
aV\u8fdf\u5230\u65f6\u957f-\u4e2a\u4eba
p28
aV\u5de5\u4f5c\u65f6\u957f
p29
aV\u52a0\u73ed\u65f6\u957f
p30
aV\u90ae\u7bb1
p31
aS'000'
p32
aa(lp33
VAE1010
p34
aV\u5218\u4f1f\u4e1c
p35
aVliu weidong
p36
aVOn the Job \u5728\u804c
p37
aV\u81ea\u8d2d
p38
aVFlexible
p39
aL22L
aS'=G2-L2-M2'
p40
aS'=G2-J2'
p41
aS'=L2+M2+N2+O2+T2'
p42
aS'=L2+M2+N2+O2+P2'
p43
aS"=VLOOKUP(A2,'[1]201510'!$A:$S,5,FALSE)"
p44
aS"=VLOOKUP(A2,'[1]201510'!$A:$AG,6,FALSE)"
p45
aS"=VLOOKUP(A2,'[1]201510'!$A:$U,7,FALSE)"
p46
aS"=VLOOKUP(A2,'[1]201510'!$A:$R,8,FALSE)"
p47
aS"=-VLOOKUP(A2,'[1]201510'!$A:$Y,10,FALSE)/8"
p48
aS'=N2+O2'
p49
aS'=COUNTIFS(record!B:B,report!B2,record!K:K,"late1")'
p50
aS'=COUNTIFS(record!B:B,report!B2,record!K:K,"late2")'
p51
aS'=COUNTIFS(record!B:B,report!B2,record!K:K,"late3")'
p52
aS'=IF(AND(E2="FTE",F2<>$F$2,G2=MAX(G:G),L2=0,M2=0,Q2<=5,R2=0,S2=0,T2=0,V2=0),"Y","N")'
p53
aV=COUNTIFS(record!B:B,report!B2,record!K:K,"\u65f7\u5de5\u534a\u5929")/2+COUNTIFS(record!B:B,report!B2,record!K:K,"\u65f7\u5de5")
p54
aS'=V2'
p55
aNaS"=VLOOKUP(A2,'[1]Annual Leave'!$A:$O,15,FALSE)"
p56
aS'=SUMIF(record!B:B,report!B2,record!M:M)'
p57
aS'=SUMIF(record!B:B,report!B2,record!O:O)'
p58
aS'=SUMIF(record!B:B,report!B2,record!N:N)'
p59
aS'=SUMIF(record!B:B,report!B2,record!P:P)'
p60
aS'=VLOOKUP(A2,[2]Report!$A:$AA,27,FALSE)'
p61
aV1006
p62
aa(lp63
VAE1024
p64
aV\u738b\u671d
p65
aVwang zhao 
p66
ag37
aVFTE
p67
aV8:30-17:30
p68
aL22L
aS'=G3-L3-M3'
p69
aS'=G3-J3'
p70
aS'=L3+M3+N3+O3+T3'
p71
aS'=L3+M3+N3+O3+P3'
p72
aS"=VLOOKUP(A3,'[1]201510'!$A:$S,5,FALSE)"
p73
aS"=VLOOKUP(A3,'[1]201510'!$A:$AG,6,FALSE)"
p74
aS"=VLOOKUP(A3,'[1]201510'!$A:$U,7,FALSE)"
p75
aS"=VLOOKUP(A3,'[1]201510'!$A:$R,8,FALSE)"
p76
aS"=-VLOOKUP(A3,'[1]201510'!$A:$Y,10,FALSE)/8"
p77
aS'=N3+O3'
p78
aS'=COUNTIFS(record!B:B,report!B3,record!K:K,"late1")'
p79
aS'=COUNTIFS(record!B:B,report!B3,record!K:K,"late2")'
p80
aS'=COUNTIFS(record!B:B,report!B3,record!K:K,"late3")'
p81
aS'=IF(AND(E3="FTE",F3<>$F$2,G3=MAX(G:G),L3=0,M3=0,Q3<=5,R3=0,S3=0,T3=0,V3=0),"Y","N")'
p82
aV=COUNTIFS(record!B:B,report!B3,record!K:K,"\u65f7\u5de5\u534a\u5929")/2+COUNTIFS(record!B:B,report!B3,record!K:K,"\u65f7\u5de5")
p83
aS'=V3'
p84
aNaS"=VLOOKUP(A3,'[1]Annual Leave'!$A:$O,15,FALSE)"
p85
aS'=SUMIF(record!B:B,report!B3,record!M:M)'
p86
aS'=SUMIF(record!B:B,report!B3,record!O:O)'
p87
aS'=SUMIF(record!B:B,report!B3,record!N:N)'
p88
aS'=SUMIF(record!B:B,report!B3,record!P:P)'
p89
aS'=VLOOKUP(A3,[2]Report!$A:$AA,27,FALSE)'
p90
aV1008
p91
aa(lp92
VAE1027
p93
aV\u9ec4\u7fd4
p94
aVhuang xiang 
p95
ag37
aVFTE
p96
aVFlexible
p97
aL22L
aS'=G4-L4-M4'
p98
aS'=G4-J4'
p99
aS'=L4+M4+N4+O4+T4'
p100
aS'=L4+M4+N4+O4+P4'
p101
aS"=VLOOKUP(A4,'[1]201510'!$A:$S,5,FALSE)"
p102
aS"=VLOOKUP(A4,'[1]201510'!$A:$AG,6,FALSE)"
p103
aS"=VLOOKUP(A4,'[1]201510'!$A:$U,7,FALSE)"
p104
aS"=VLOOKUP(A4,'[1]201510'!$A:$R,8,FALSE)"
p105
aS"=-VLOOKUP(A4,'[1]201510'!$A:$Y,10,FALSE)/8"
p106
aS'=N4+O4'
p107
aS'=COUNTIFS(record!B:B,report!B4,record!K:K,"late1")'
p108
aS'=COUNTIFS(record!B:B,report!B4,record!K:K,"late2")'
p109
aS'=COUNTIFS(record!B:B,report!B4,record!K:K,"late3")'
p110
aS'=IF(AND(E4="FTE",F4<>$F$2,G4=MAX(G:G),L4=0,M4=0,Q4<=5,R4=0,S4=0,T4=0,V4=0),"Y","N")'
p111
aV=COUNTIFS(record!B:B,report!B4,record!K:K,"\u65f7\u5de5\u534a\u5929")/2+COUNTIFS(record!B:B,report!B4,record!K:K,"\u65f7\u5de5")
p112
aS'=V4'
p113
aNaS"=VLOOKUP(A4,'[1]Annual Leave'!$A:$O,15,FALSE)"
p114
aS'=SUMIF(record!B:B,report!B4,record!M:M)'
p115
aS'=SUMIF(record!B:B,report!B4,record!O:O)'
p116
aS'=SUMIF(record!B:B,report!B4,record!N:N)'
p117
aS'=SUMIF(record!B:B,report!B4,record!P:P)'
p118
aS'=VLOOKUP(A4,[2]Report!$A:$AA,27,FALSE)'
p119
aV1009
p120
aa(lp121
VAE1053
p122
aV\u675c\u4f1f\u5dcd
p123
aVdu weiwei
p124
ag37
ag96
ag97
aL22L
aS'=G5-L5-M5'
p125
aS'=G5-J5'
p126
aS'=L5+M5+N5+O5+T5'
p127
aS'=L5+M5+N5+O5+P5'
p128
aS"=VLOOKUP(A5,'[1]201510'!$A:$S,5,FALSE)"
p129
aS"=VLOOKUP(A5,'[1]201510'!$A:$AG,6,FALSE)"
p130
aS"=VLOOKUP(A5,'[1]201510'!$A:$U,7,FALSE)"
p131
aS"=VLOOKUP(A5,'[1]201510'!$A:$R,8,FALSE)"
p132
aS"=-VLOOKUP(A5,'[1]201510'!$A:$Y,10,FALSE)/8"
p133
aS'=N5+O5'
p134
aS'=COUNTIFS(record!B:B,report!B5,record!K:K,"late1")'
p135
aS'=COUNTIFS(record!B:B,report!B5,record!K:K,"late2")'
p136
aS'=COUNTIFS(record!B:B,report!B5,record!K:K,"late3")'
p137
aS'=IF(AND(E5="FTE",F5<>$F$2,G5=MAX(G:G),L5=0,M5=0,Q5<=5,R5=0,S5=0,T5=0,V5=0),"Y","N")'
p138
aV=COUNTIFS(record!B:B,report!B5,record!K:K,"\u65f7\u5de5\u534a\u5929")/2+COUNTIFS(record!B:B,report!B5,record!K:K,"\u65f7\u5de5")
p139
aS'=V5'
p140
aNaS"=VLOOKUP(A5,'[1]Annual Leave'!$A:$O,15,FALSE)"
p141
aS'=SUMIF(record!B:B,report!B5,record!M:M)'
p142
aS'=SUMIF(record!B:B,report!B5,record!O:O)'
p143
aS'=SUMIF(record!B:B,report!B5,record!N:N)'
p144
aS'=SUMIF(record!B:B,report!B5,record!P:P)'
p145
aS'=VLOOKUP(A5,[2]Report!$A:$AA,27,FALSE)'
p146
aV1011
p147
aa(lp148
VAE1080
p149
aV\u5468\u5f20\u6797
p150
aVzhou zhanglin 
p151
ag37
ag96
ag68
aL22L
aS'=G6-L6-M6'
p152
aS'=G6-J6'
p153
aS'=L6+M6+N6+O6+T6'
p154
aS'=L6+M6+N6+O6+P6'
p155
aS"=VLOOKUP(A6,'[1]201510'!$A:$S,5,FALSE)"
p156
aS"=VLOOKUP(A6,'[1]201510'!$A:$AG,6,FALSE)"
p157
aS"=VLOOKUP(A6,'[1]201510'!$A:$U,7,FALSE)"
p158
aS"=VLOOKUP(A6,'[1]201510'!$A:$R,8,FALSE)"
p159
aS"=-VLOOKUP(A6,'[1]201510'!$A:$Y,10,FALSE)/8"
p160
aS'=N6+O6'
p161
aS'=COUNTIFS(record!B:B,report!B6,record!K:K,"late1")'
p162
aS'=COUNTIFS(record!B:B,report!B6,record!K:K,"late2")'
p163
aS'=COUNTIFS(record!B:B,report!B6,record!K:K,"late3")'
p164
aS'=IF(AND(E6="FTE",F6<>$F$2,G6=MAX(G:G),L6=0,M6=0,Q6<=5,R6=0,S6=0,T6=0,V6=0),"Y","N")'
p165
aV=COUNTIFS(record!B:B,report!B6,record!K:K,"\u65f7\u5de5\u534a\u5929")/2+COUNTIFS(record!B:B,report!B6,record!K:K,"\u65f7\u5de5")
p166
aS'=V6'
p167
aNaS"=VLOOKUP(A6,'[1]Annual Leave'!$A:$O,15,FALSE)"
p168
aS'=SUMIF(record!B:B,report!B6,record!M:M)'
p169
aS'=SUMIF(record!B:B,report!B6,record!O:O)'
p170
aS'=SUMIF(record!B:B,report!B6,record!N:N)'
p171
aS'=SUMIF(record!B:B,report!B6,record!P:P)'
p172
aS'=VLOOKUP(A6,[2]Report!$A:$AA,27,FALSE)'
p173
aV1013
p174
aa(lp175
VAE1085
p176
aV\u4efb\u9e3f
p177
aVren hong 
p178
ag37
ag96
ag97
aL22L
aS'=G7-L7-M7'
p179
aS'=G7-J7'
p180
aS'=L7+M7+N7+O7+T7'
p181
aS'=L7+M7+N7+O7+P7'
p182
aS"=VLOOKUP(A7,'[1]201510'!$A:$S,5,FALSE)"
p183
aS"=VLOOKUP(A7,'[1]201510'!$A:$AG,6,FALSE)"
p184
aS"=VLOOKUP(A7,'[1]201510'!$A:$U,7,FALSE)"
p185
aS"=VLOOKUP(A7,'[1]201510'!$A:$R,8,FALSE)"
p186
aS"=-VLOOKUP(A7,'[1]201510'!$A:$Y,10,FALSE)/8"
p187
aS'=N7+O7'
p188
aS'=COUNTIFS(record!B:B,report!B7,record!K:K,"late1")'
p189
aS'=COUNTIFS(record!B:B,report!B7,record!K:K,"late2")'
p190
aS'=COUNTIFS(record!B:B,report!B7,record!K:K,"late3")'
p191
aS'=IF(AND(E7="FTE",F7<>$F$2,G7=MAX(G:G),L7=0,M7=0,Q7<=5,R7=0,S7=0,T7=0,V7=0),"Y","N")'
p192
aV=COUNTIFS(record!B:B,report!B7,record!K:K,"\u65f7\u5de5\u534a\u5929")/2+COUNTIFS(record!B:B,report!B7,record!K:K,"\u65f7\u5de5")
p193
aS'=V7'
p194
aNaS"=VLOOKUP(A7,'[1]Annual Leave'!$A:$O,15,FALSE)"
p195
aS'=SUMIF(record!B:B,report!B7,record!M:M)'
p196
aS'=SUMIF(record!B:B,report!B7,record!O:O)'
p197
aS'=SUMIF(record!B:B,report!B7,record!N:N)'
p198
aS'=SUMIF(record!B:B,report!B7,record!P:P)'
p199
aS'=VLOOKUP(A7,[2]Report!$A:$AA,27,FALSE)'
p200
aV1014
p201
aa(lp202
VAE1086
p203
aV\u674e\u5b63
p204
aVli ji 
p205
ag37
ag96
ag68
aL22L
aS'=G8-L8-M8'
p206
aS'=G8-J8'
p207
aS'=L8+M8+N8+O8+T8'
p208
aS'=L8+M8+N8+O8+P8'
p209
aS"=VLOOKUP(A8,'[1]201510'!$A:$S,5,FALSE)"
p210
aS"=VLOOKUP(A8,'[1]201510'!$A:$AG,6,FALSE)"
p211
aS"=VLOOKUP(A8,'[1]201510'!$A:$U,7,FALSE)"
p212
aS"=VLOOKUP(A8,'[1]201510'!$A:$R,8,FALSE)"
p213
aS"=-VLOOKUP(A8,'[1]201510'!$A:$Y,10,FALSE)/8"
p214
aS'=N8+O8'
p215
aS'=COUNTIFS(record!B:B,report!B8,record!K:K,"late1")'
p216
aS'=COUNTIFS(record!B:B,report!B8,record!K:K,"late2")'
p217
aS'=COUNTIFS(record!B:B,report!B8,record!K:K,"late3")'
p218
aS'=IF(AND(E8="FTE",F8<>$F$2,G8=MAX(G:G),L8=0,M8=0,Q8<=5,R8=0,S8=0,T8=0,V8=0),"Y","N")'
p219
aV=COUNTIFS(record!B:B,report!B8,record!K:K,"\u65f7\u5de5\u534a\u5929")/2+COUNTIFS(record!B:B,report!B8,record!K:K,"\u65f7\u5de5")
p220
aS'=V8'
p221
aNaS"=VLOOKUP(A8,'[1]Annual Leave'!$A:$O,15,FALSE)"
p222
aS'=SUMIF(record!B:B,report!B8,record!M:M)'
p223
aS'=SUMIF(record!B:B,report!B8,record!O:O)'
p224
aS'=SUMIF(record!B:B,report!B8,record!N:N)'
p225
aS'=SUMIF(record!B:B,report!B8,record!P:P)'
p226
aS'=VLOOKUP(A8,[2]Report!$A:$AA,27,FALSE)'
p227
aV1015
p228
aa(lp229
VAE1097
p230
aV\u5170\u950b
p231
aVlan feng 
p232
ag37
ag67
ag68
aL22L
aS'=G9-L9-M9'
p233
aS'=G9-J9'
p234
aS'=L9+M9+N9+O9+T9'
p235
aS'=L9+M9+N9+O9+P9'
p236
aS"=VLOOKUP(A9,'[1]201510'!$A:$S,5,FALSE)"
p237
aS"=VLOOKUP(A9,'[1]201510'!$A:$AG,6,FALSE)"
p238
aS"=VLOOKUP(A9,'[1]201510'!$A:$U,7,FALSE)"
p239
aS"=VLOOKUP(A9,'[1]201510'!$A:$R,8,FALSE)"
p240
aS"=-VLOOKUP(A9,'[1]201510'!$A:$Y,10,FALSE)/8"
p241
aS'=N9+O9'
p242
aS'=COUNTIFS(record!B:B,report!B9,record!K:K,"late1")'
p243
aS'=COUNTIFS(record!B:B,report!B9,record!K:K,"late2")'
p244
aS'=COUNTIFS(record!B:B,report!B9,record!K:K,"late3")'
p245
aS'=IF(AND(E9="FTE",F9<>$F$2,G9=MAX(G:G),L9=0,M9=0,Q9<=5,R9=0,S9=0,T9=0,V9=0),"Y","N")'
p246
aV=COUNTIFS(record!B:B,report!B9,record!K:K,"\u65f7\u5de5\u534a\u5929")/2+COUNTIFS(record!B:B,report!B9,record!K:K,"\u65f7\u5de5")
p247
aS'=V9'
p248
aNaS"=VLOOKUP(A9,'[1]Annual Leave'!$A:$O,15,FALSE)"
p249
aS'=SUMIF(record!B:B,report!B9,record!M:M)'
p250
aS'=SUMIF(record!B:B,report!B9,record!O:O)'
p251
aS'=SUMIF(record!B:B,report!B9,record!N:N)'
p252
aS'=SUMIF(record!B:B,report!B9,record!P:P)'
p253
aS'=VLOOKUP(A9,[2]Report!$A:$AA,27,FALSE)'
p254
aV1017
p255
aa(lp256
VAE1105
p257
aV\u674e\u51ac
p258
aVli dong 
p259
ag37
ag67
ag68
aL22L
aS'=G10-L10-M10'
p260
aS'=G10-J10'
p261
aS'=L10+M10+N10+O10+T10'
p262
aS'=L10+M10+N10+O10+P10'
p263
aS"=VLOOKUP(A10,'[1]201510'!$A:$S,5,FALSE)"
p264
aS"=VLOOKUP(A10,'[1]201510'!$A:$AG,6,FALSE)"
p265
aS"=VLOOKUP(A10,'[1]201510'!$A:$U,7,FALSE)"
p266
aS"=VLOOKUP(A10,'[1]201510'!$A:$R,8,FALSE)"
p267
aS"=-VLOOKUP(A10,'[1]201510'!$A:$Y,10,FALSE)/8"
p268
aS'=N10+O10'
p269
aS'=COUNTIFS(record!B:B,report!B10,record!K:K,"late1")'
p270
aS'=COUNTIFS(record!B:B,report!B10,record!K:K,"late2")'
p271
aS'=COUNTIFS(record!B:B,report!B10,record!K:K,"late3")'
p272
aS'=IF(AND(E10="FTE",F10<>$F$2,G10=MAX(G:G),L10=0,M10=0,Q10<=5,R10=0,S10=0,T10=0,V10=0),"Y","N")'
p273
aV=COUNTIFS(record!B:B,report!B10,record!K:K,"\u65f7\u5de5\u534a\u5929")/2+COUNTIFS(record!B:B,report!B10,record!K:K,"\u65f7\u5de5")
p274
aS'=V10'
p275
aNaS"=VLOOKUP(A10,'[1]Annual Leave'!$A:$O,15,FALSE)"
p276
aS'=SUMIF(record!B:B,report!B10,record!M:M)'
p277
aS'=SUMIF(record!B:B,report!B10,record!O:O)'
p278
aS'=SUMIF(record!B:B,report!B10,record!N:N)'
p279
aS'=SUMIF(record!B:B,report!B10,record!P:P)'
p280
aS'=VLOOKUP(A10,[2]Report!$A:$AA,27,FALSE)'
p281
aV1018
p282
aa(lp283
VAE1133
p284
aV\u738b\u52c7
p285
aVwang yong
p286
ag37
ag67
ag39
aL22L
aS'=G11-L11-M11'
p287
aS'=G11-J11'
p288
aS'=L11+M11+N11+O11+T11'
p289
aS'=L11+M11+N11+O11+P11'
p290
aS"=VLOOKUP(A11,'[1]201510'!$A:$S,5,FALSE)"
p291
aS"=VLOOKUP(A11,'[1]201510'!$A:$AG,6,FALSE)"
p292
aS"=VLOOKUP(A11,'[1]201510'!$A:$U,7,FALSE)"
p293
aS"=VLOOKUP(A11,'[1]201510'!$A:$R,8,FALSE)"
p294
aS"=-VLOOKUP(A11,'[1]201510'!$A:$Y,10,FALSE)/8"
p295
aS'=N11+O11'
p296
aS'=COUNTIFS(record!B:B,report!B11,record!K:K,"late1")'
p297
aS'=COUNTIFS(record!B:B,report!B11,record!K:K,"late2")'
p298
aS'=COUNTIFS(record!B:B,report!B11,record!K:K,"late3")'
p299
aS'=IF(AND(E11="FTE",F11<>$F$2,G11=MAX(G:G),L11=0,M11=0,Q11<=5,R11=0,S11=0,T11=0,V11=0),"Y","N")'
p300
aV=COUNTIFS(record!B:B,report!B11,record!K:K,"\u65f7\u5de5\u534a\u5929")/2+COUNTIFS(record!B:B,report!B11,record!K:K,"\u65f7\u5de5")
p301
aS'=V11'
p302
aNaS"=VLOOKUP(A11,'[1]Annual Leave'!$A:$O,15,FALSE)"
p303
aS'=SUMIF(record!B:B,report!B11,record!M:M)'
p304
aS'=SUMIF(record!B:B,report!B11,record!O:O)'
p305
aS'=SUMIF(record!B:B,report!B11,record!N:N)'
p306
aS'=SUMIF(record!B:B,report!B11,record!P:P)'
p307
aS'=VLOOKUP(A11,[2]Report!$A:$AA,27,FALSE)'
p308
aV1019
p309
aa(lp310
VAE1137
p311
aV\u7f57\u5a77
p312
aVluo ting 
p313
ag37
ag96
ag68
aL22L
aS'=G12-L12-M12'
p314
aS'=G12-J12'
p315
aS'=L12+M12+N12+O12+T12'
p316
aS'=L12+M12+N12+O12+P12'
p317
aS"=VLOOKUP(A12,'[1]201510'!$A:$S,5,FALSE)"
p318
aS"=VLOOKUP(A12,'[1]201510'!$A:$AG,6,FALSE)"
p319
aS"=VLOOKUP(A12,'[1]201510'!$A:$U,7,FALSE)"
p320
aS"=VLOOKUP(A12,'[1]201510'!$A:$R,8,FALSE)"
p321
aS"=-VLOOKUP(A12,'[1]201510'!$A:$Y,10,FALSE)/8"
p322
aS'=N12+O12'
p323
aS'=COUNTIFS(record!B:B,report!B12,record!K:K,"late1")'
p324
aS'=COUNTIFS(record!B:B,report!B12,record!K:K,"late2")'
p325
aS'=COUNTIFS(record!B:B,report!B12,record!K:K,"late3")'
p326
aS'=IF(AND(E12="FTE",F12<>$F$2,G12=MAX(G:G),L12=0,M12=0,Q12<=5,R12=0,S12=0,T12=0,V12=0),"Y","N")'
p327
aV=COUNTIFS(record!B:B,report!B12,record!K:K,"\u65f7\u5de5\u534a\u5929")/2+COUNTIFS(record!B:B,report!B12,record!K:K,"\u65f7\u5de5")
p328
aS'=V12'
p329
aNaS"=VLOOKUP(A12,'[1]Annual Leave'!$A:$O,15,FALSE)"
p330
aS'=SUMIF(record!B:B,report!B12,record!M:M)'
p331
aS'=SUMIF(record!B:B,report!B12,record!O:O)'
p332
aS'=SUMIF(record!B:B,report!B12,record!N:N)'
p333
aS'=SUMIF(record!B:B,report!B12,record!P:P)'
p334
aS'=VLOOKUP(A12,[2]Report!$A:$AA,27,FALSE)'
p335
aV1021
p336
aa(lp337
VAE1151
p338
aV\u5f20\u9896
p339
aVzhang ying
p340
ag37
ag96
aV9:00-18:00
p341
aL22L
aS'=G13-L13-M13'
p342
aS'=G13-J13'
p343
aS'=L13+M13+N13+O13+T13'
p344
aS'=L13+M13+N13+O13+P13'
p345
aS"=VLOOKUP(A13,'[1]201510'!$A:$S,5,FALSE)"
p346
aS"=VLOOKUP(A13,'[1]201510'!$A:$AG,6,FALSE)"
p347
aS"=VLOOKUP(A13,'[1]201510'!$A:$U,7,FALSE)"
p348
aS"=VLOOKUP(A13,'[1]201510'!$A:$R,8,FALSE)"
p349
aS"=-VLOOKUP(A13,'[1]201510'!$A:$Y,10,FALSE)/8"
p350
aS'=N13+O13'
p351
aS'=COUNTIFS(record!B:B,report!B13,record!K:K,"late1")'
p352
aS'=COUNTIFS(record!B:B,report!B13,record!K:K,"late2")'
p353
aS'=COUNTIFS(record!B:B,report!B13,record!K:K,"late3")'
p354
aS'=IF(AND(E13="FTE",F13<>$F$2,G13=MAX(G:G),L13=0,M13=0,Q13<=5,R13=0,S13=0,T13=0,V13=0),"Y","N")'
p355
aV=COUNTIFS(record!B:B,report!B13,record!K:K,"\u65f7\u5de5\u534a\u5929")/2+COUNTIFS(record!B:B,report!B13,record!K:K,"\u65f7\u5de5")
p356
aS'=V13'
p357
aNaS"=VLOOKUP(A13,'[1]Annual Leave'!$A:$O,15,FALSE)"
p358
aS'=SUMIF(record!B:B,report!B13,record!M:M)'
p359
aS'=SUMIF(record!B:B,report!B13,record!O:O)'
p360
aS'=SUMIF(record!B:B,report!B13,record!N:N)'
p361
aS'=SUMIF(record!B:B,report!B13,record!P:P)'
p362
aS'=VLOOKUP(A13,[2]Report!$A:$AA,27,FALSE)'
p363
aV1022
p364
aa(lp365
VAE1157
p366
aV\u5218\u6d77\u9f99
p367
aVliu hailong 
p368
ag37
ag96
ag97
aL22L
aS'=G14-L14-M14'
p369
aS'=G14-J14'
p370
aS'=L14+M14+N14+O14+T14'
p371
aS'=L14+M14+N14+O14+P14'
p372
aS"=VLOOKUP(A14,'[1]201510'!$A:$S,5,FALSE)"
p373
aS"=VLOOKUP(A14,'[1]201510'!$A:$AG,6,FALSE)"
p374
aS"=VLOOKUP(A14,'[1]201510'!$A:$U,7,FALSE)"
p375
aS"=VLOOKUP(A14,'[1]201510'!$A:$R,8,FALSE)"
p376
aS"=-VLOOKUP(A14,'[1]201510'!$A:$Y,10,FALSE)/8"
p377
aS'=N14+O14'
p378
aS'=COUNTIFS(record!B:B,report!B14,record!K:K,"late1")'
p379
aS'=COUNTIFS(record!B:B,report!B14,record!K:K,"late2")'
p380
aS'=COUNTIFS(record!B:B,report!B14,record!K:K,"late3")'
p381
aS'=IF(AND(E14="FTE",F14<>$F$2,G14=MAX(G:G),L14=0,M14=0,Q14<=5,R14=0,S14=0,T14=0,V14=0),"Y","N")'
p382
aV=COUNTIFS(record!B:B,report!B14,record!K:K,"\u65f7\u5de5\u534a\u5929")/2+COUNTIFS(record!B:B,report!B14,record!K:K,"\u65f7\u5de5")
p383
aS'=V14'
p384
aNaS"=VLOOKUP(A14,'[1]Annual Leave'!$A:$O,15,FALSE)"
p385
aS'=SUMIF(record!B:B,report!B14,record!M:M)'
p386
aS'=SUMIF(record!B:B,report!B14,record!O:O)'
p387
aS'=SUMIF(record!B:B,report!B14,record!N:N)'
p388
aS'=SUMIF(record!B:B,report!B14,record!P:P)'
p389
aS'=VLOOKUP(A14,[2]Report!$A:$AA,27,FALSE)'
p390
aV1023
p391
aa(lp392
VAE1170
p393
aV\u9ad8\u99a8\u99a8
p394
aVgao xinxin 
p395
ag37
ag96
ag68
aL22L
aS'=G15-L15-M15'
p396
aS'=G15-J15'
p397
aS'=L15+M15+N15+O15+T15'
p398
aS'=L15+M15+N15+O15+P15'
p399
aS"=VLOOKUP(A15,'[1]201510'!$A:$S,5,FALSE)"
p400
aS"=VLOOKUP(A15,'[1]201510'!$A:$AG,6,FALSE)"
p401
aS"=VLOOKUP(A15,'[1]201510'!$A:$U,7,FALSE)"
p402
aS"=VLOOKUP(A15,'[1]201510'!$A:$R,8,FALSE)"
p403
aS"=-VLOOKUP(A15,'[1]201510'!$A:$Y,10,FALSE)/8"
p404
aS'=N15+O15'
p405
aS'=COUNTIFS(record!B:B,report!B15,record!K:K,"late1")'
p406
aS'=COUNTIFS(record!B:B,report!B15,record!K:K,"late2")'
p407
aS'=COUNTIFS(record!B:B,report!B15,record!K:K,"late3")'
p408
aS'=IF(AND(E15="FTE",F15<>$F$2,G15=MAX(G:G),L15=0,M15=0,Q15<=5,R15=0,S15=0,T15=0,V15=0),"Y","N")'
p409
aV=COUNTIFS(record!B:B,report!B15,record!K:K,"\u65f7\u5de5\u534a\u5929")/2+COUNTIFS(record!B:B,report!B15,record!K:K,"\u65f7\u5de5")
p410
aS'=V15'
p411
aNaS"=VLOOKUP(A15,'[1]Annual Leave'!$A:$O,15,FALSE)"
p412
aS'=SUMIF(record!B:B,report!B15,record!M:M)'
p413
aS'=SUMIF(record!B:B,report!B15,record!O:O)'
p414
aS'=SUMIF(record!B:B,report!B15,record!N:N)'
p415
aS'=SUMIF(record!B:B,report!B15,record!P:P)'
p416
aS'=VLOOKUP(A15,[2]Report!$A:$AA,27,FALSE)'
p417
aV1025
p418
aa(lp419
VAE1171
p420
aV\u7530\u76f8\u57ce
p421
aVtian xiangcheng 
p422
ag37
ag96
ag68
aL22L
aS'=G16-L16-M16'
p423
aS'=G16-J16'
p424
aS'=L16+M16+N16+O16+T16'
p425
aS'=L16+M16+N16+O16+P16'
p426
aS"=VLOOKUP(A16,'[1]201510'!$A:$S,5,FALSE)"
p427
aS"=VLOOKUP(A16,'[1]201510'!$A:$AG,6,FALSE)"
p428
aS"=VLOOKUP(A16,'[1]201510'!$A:$U,7,FALSE)"
p429
aS"=VLOOKUP(A16,'[1]201510'!$A:$R,8,FALSE)"
p430
aS"=-VLOOKUP(A16,'[1]201510'!$A:$Y,10,FALSE)/8"
p431
aS'=N16+O16'
p432
aS'=COUNTIFS(record!B:B,report!B16,record!K:K,"late1")'
p433
aS'=COUNTIFS(record!B:B,report!B16,record!K:K,"late2")'
p434
aS'=COUNTIFS(record!B:B,report!B16,record!K:K,"late3")'
p435
aS'=IF(AND(E16="FTE",F16<>$F$2,G16=MAX(G:G),L16=0,M16=0,Q16<=5,R16=0,S16=0,T16=0,V16=0),"Y","N")'
p436
aV=COUNTIFS(record!B:B,report!B16,record!K:K,"\u65f7\u5de5\u534a\u5929")/2+COUNTIFS(record!B:B,report!B16,record!K:K,"\u65f7\u5de5")
p437
aS'=V16'
p438
aNaS"=VLOOKUP(A16,'[1]Annual Leave'!$A:$O,15,FALSE)"
p439
aS'=SUMIF(record!B:B,report!B16,record!M:M)'
p440
aS'=SUMIF(record!B:B,report!B16,record!O:O)'
p441
aS'=SUMIF(record!B:B,report!B16,record!N:N)'
p442
aS'=SUMIF(record!B:B,report!B16,record!P:P)'
p443
aS'=VLOOKUP(A16,[2]Report!$A:$AA,27,FALSE)'
p444
aV1026
p445
aa(lp446
VAE1175
p447
aV\u7f57\u6615
p448
aVluo xin 
p449
ag37
ag96
ag68
aL22L
aS'=G17-L17-M17'
p450
aS'=G17-J17'
p451
aS'=L17+M17+N17+O17+T17'
p452
aS'=L17+M17+N17+O17+P17'
p453
aS"=VLOOKUP(A17,'[1]201510'!$A:$S,5,FALSE)"
p454
aS"=VLOOKUP(A17,'[1]201510'!$A:$AG,6,FALSE)"
p455
aS"=VLOOKUP(A17,'[1]201510'!$A:$U,7,FALSE)"
p456
aS"=VLOOKUP(A17,'[1]201510'!$A:$R,8,FALSE)"
p457
aS"=-VLOOKUP(A17,'[1]201510'!$A:$Y,10,FALSE)/8"
p458
aS'=N17+O17'
p459
aS'=COUNTIFS(record!B:B,report!B17,record!K:K,"late1")'
p460
aS'=COUNTIFS(record!B:B,report!B17,record!K:K,"late2")'
p461
aS'=COUNTIFS(record!B:B,report!B17,record!K:K,"late3")'
p462
aS'=IF(AND(E17="FTE",F17<>$F$2,G17=MAX(G:G),L17=0,M17=0,Q17<=5,R17=0,S17=0,T17=0,V17=0),"Y","N")'
p463
aV=COUNTIFS(record!B:B,report!B17,record!K:K,"\u65f7\u5de5\u534a\u5929")/2+COUNTIFS(record!B:B,report!B17,record!K:K,"\u65f7\u5de5")
p464
aS'=V17'
p465
aNaS"=VLOOKUP(A17,'[1]Annual Leave'!$A:$O,15,FALSE)"
p466
aS'=SUMIF(record!B:B,report!B17,record!M:M)'
p467
aS'=SUMIF(record!B:B,report!B17,record!O:O)'
p468
aS'=SUMIF(record!B:B,report!B17,record!N:N)'
p469
aS'=SUMIF(record!B:B,report!B17,record!P:P)'
p470
aS'=VLOOKUP(A17,[2]Report!$A:$AA,27,FALSE)'
p471
aV1028
p472
aa(lp473
VAE1173
p474
aV\u9093\u5349
p475
aVdeng hui 
p476
ag37
ag67
ag68
aL22L
aS'=G18-L18-M18'
p477
aS'=G18-J18'
p478
aS'=L18+M18+N18+O18+T18'
p479
aS'=L18+M18+N18+O18+P18'
p480
aS"=VLOOKUP(A18,'[1]201510'!$A:$S,5,FALSE)"
p481
aS"=VLOOKUP(A18,'[1]201510'!$A:$AG,6,FALSE)"
p482
aS"=VLOOKUP(A18,'[1]201510'!$A:$U,7,FALSE)"
p483
aS"=VLOOKUP(A18,'[1]201510'!$A:$R,8,FALSE)"
p484
aS"=-VLOOKUP(A18,'[1]201510'!$A:$Y,10,FALSE)/8"
p485
aS'=N18+O18'
p486
aS'=COUNTIFS(record!B:B,report!B18,record!K:K,"late1")'
p487
aS'=COUNTIFS(record!B:B,report!B18,record!K:K,"late2")'
p488
aS'=COUNTIFS(record!B:B,report!B18,record!K:K,"late3")'
p489
aS'=IF(AND(E18="FTE",F18<>$F$2,G18=MAX(G:G),L18=0,M18=0,Q18<=5,R18=0,S18=0,T18=0,V18=0),"Y","N")'
p490
aV=COUNTIFS(record!B:B,report!B18,record!K:K,"\u65f7\u5de5\u534a\u5929")/2+COUNTIFS(record!B:B,report!B18,record!K:K,"\u65f7\u5de5")
p491
aS'=V18'
p492
aNaS"=VLOOKUP(A18,'[1]Annual Leave'!$A:$O,15,FALSE)"
p493
aS'=SUMIF(record!B:B,report!B18,record!M:M)'
p494
aS'=SUMIF(record!B:B,report!B18,record!O:O)'
p495
aS'=SUMIF(record!B:B,report!B18,record!N:N)'
p496
aS'=SUMIF(record!B:B,report!B18,record!P:P)'
p497
aVdenghui@smalltreemedia.com
p498
aV1196
p499
aa(lp500
VAE1136
p501
aV\u5f20\u4ee3\u8d1d
p502
aVzhang daibei 
p503
ag37
ag67
ag68
aL22L
aS'=G19-L19-M19'
p504
aS'=G19-J19'
p505
aS'=L19+M19+N19+O19+T19'
p506
aS'=L19+M19+N19+O19+P19'
p507
aS"=VLOOKUP(A19,'[1]201510'!$A:$S,5,FALSE)"
p508
aS"=VLOOKUP(A19,'[1]201510'!$A:$AG,6,FALSE)"
p509
aS"=VLOOKUP(A19,'[1]201510'!$A:$U,7,FALSE)"
p510
aS"=VLOOKUP(A19,'[1]201510'!$A:$R,8,FALSE)"
p511
aS"=-VLOOKUP(A19,'[1]201510'!$A:$Y,10,FALSE)/8"
p512
aS'=N19+O19'
p513
aS'=COUNTIFS(record!B:B,report!B19,record!K:K,"late1")'
p514
aS'=COUNTIFS(record!B:B,report!B19,record!K:K,"late2")'
p515
aS'=COUNTIFS(record!B:B,report!B19,record!K:K,"late3")'
p516
aS'=IF(AND(E19="FTE",F19<>$F$2,G19=MAX(G:G),L19=0,M19=0,Q19<=5,R19=0,S19=0,T19=0,V19=0),"Y","N")'
p517
aV=COUNTIFS(record!B:B,report!B19,record!K:K,"\u65f7\u5de5\u534a\u5929")/2+COUNTIFS(record!B:B,report!B19,record!K:K,"\u65f7\u5de5")
p518
aS'=V19'
p519
aNaS"=VLOOKUP(A19,'[1]Annual Leave'!$A:$O,15,FALSE)"
p520
aS'=SUMIF(record!B:B,report!B19,record!M:M)'
p521
aS'=SUMIF(record!B:B,report!B19,record!O:O)'
p522
aS'=SUMIF(record!B:B,report!B19,record!N:N)'
p523
aS'=SUMIF(record!B:B,report!B19,record!P:P)'
p524
aS'=VLOOKUP(A19,[2]Report!$A:$AA,27,FALSE)'
p525
aV1020
p526
aa(lp527
VAE1184
p528
aV\u5434\u5a1f
p529
aVwu juan 
p530
ag37
ag67
ag39
aL22L
aS'=G20-L20-M20'
p531
aS'=G20-J20'
p532
aS'=L20+M20+N20+O20+T20'
p533
aS'=L20+M20+N20+O20+P20'
p534
aS"=VLOOKUP(A20,'[1]201510'!$A:$S,5,FALSE)"
p535
aS"=VLOOKUP(A20,'[1]201510'!$A:$AG,6,FALSE)"
p536
aS"=VLOOKUP(A20,'[1]201510'!$A:$U,7,FALSE)"
p537
aS"=VLOOKUP(A20,'[1]201510'!$A:$R,8,FALSE)"
p538
aS"=-VLOOKUP(A20,'[1]201510'!$A:$Y,10,FALSE)/8"
p539
aS'=N20+O20'
p540
aS'=COUNTIFS(record!B:B,report!B20,record!K:K,"late1")'
p541
aS'=COUNTIFS(record!B:B,report!B20,record!K:K,"late2")'
p542
aS'=COUNTIFS(record!B:B,report!B20,record!K:K,"late3")'
p543
aS'=IF(AND(E20="FTE",F20<>$F$2,G20=MAX(G:G),L20=0,M20=0,Q20<=5,R20=0,S20=0,T20=0,V20=0),"Y","N")'
p544
aV=COUNTIFS(record!B:B,report!B20,record!K:K,"\u65f7\u5de5\u534a\u5929")/2+COUNTIFS(record!B:B,report!B20,record!K:K,"\u65f7\u5de5")
p545
aS'=V20'
p546
aNaS"=VLOOKUP(A20,'[1]Annual Leave'!$A:$O,15,FALSE)"
p547
aS'=SUMIF(record!B:B,report!B20,record!M:M)'
p548
aS'=SUMIF(record!B:B,report!B20,record!O:O)'
p549
aS'=SUMIF(record!B:B,report!B20,record!N:N)'
p550
aS'=SUMIF(record!B:B,report!B20,record!P:P)'
p551
aS'=VLOOKUP(A20,[2]Report!$A:$AA,27,FALSE)'
p552
aV1029
p553
aa(lp554
VAE1206
p555
aV\u6768\u5c1a\u51e4
p556
aVyang shangfeng 
p557
ag37
ag67
ag68
aL22L
aS'=G21-L21-M21'
p558
aS'=G21-J21'
p559
aS'=L21+M21+N21+O21+T21'
p560
aS'=L21+M21+N21+O21+P21'
p561
aS"=VLOOKUP(A21,'[1]201510'!$A:$S,5,FALSE)"
p562
aS"=VLOOKUP(A21,'[1]201510'!$A:$AG,6,FALSE)"
p563
aS"=VLOOKUP(A21,'[1]201510'!$A:$U,7,FALSE)"
p564
aS"=VLOOKUP(A21,'[1]201510'!$A:$R,8,FALSE)"
p565
aS"=-VLOOKUP(A21,'[1]201510'!$A:$Y,10,FALSE)/8"
p566
aS'=N21+O21'
p567
aS'=COUNTIFS(record!B:B,report!B21,record!K:K,"late1")'
p568
aS'=COUNTIFS(record!B:B,report!B21,record!K:K,"late2")'
p569
aS'=COUNTIFS(record!B:B,report!B21,record!K:K,"late3")'
p570
aS'=IF(AND(E21="FTE",F21<>$F$2,G21=MAX(G:G),L21=0,M21=0,Q21<=5,R21=0,S21=0,T21=0,V21=0),"Y","N")'
p571
aV=COUNTIFS(record!B:B,report!B21,record!K:K,"\u65f7\u5de5\u534a\u5929")/2+COUNTIFS(record!B:B,report!B21,record!K:K,"\u65f7\u5de5")
p572
aS'=V21'
p573
aNaS"=VLOOKUP(A21,'[1]Annual Leave'!$A:$O,15,FALSE)"
p574
aS'=SUMIF(record!B:B,report!B21,record!M:M)'
p575
aS'=SUMIF(record!B:B,report!B21,record!O:O)'
p576
aS'=SUMIF(record!B:B,report!B21,record!N:N)'
p577
aS'=SUMIF(record!B:B,report!B21,record!P:P)'
p578
aS'=VLOOKUP(A21,[2]Report!$A:$AA,27,FALSE)'
p579
aV1032
p580
aa(lp581
VAE1204
p582
aV\u738b\u534e
p583
aVwang hua 
p584
ag37
ag67
ag68
aL22L
aS'=G22-L22-M22'
p585
aS'=G22-J22'
p586
aS'=L22+M22+N22+O22+T22'
p587
aS'=L22+M22+N22+O22+P22'
p588
aS"=VLOOKUP(A22,'[1]201510'!$A:$S,5,FALSE)"
p589
aS"=VLOOKUP(A22,'[1]201510'!$A:$AG,6,FALSE)"
p590
aS"=VLOOKUP(A22,'[1]201510'!$A:$U,7,FALSE)"
p591
aS"=VLOOKUP(A22,'[1]201510'!$A:$R,8,FALSE)"
p592
aS"=-VLOOKUP(A22,'[1]201510'!$A:$Y,10,FALSE)/8"
p593
aS'=N22+O22'
p594
aS'=COUNTIFS(record!B:B,report!B22,record!K:K,"late1")'
p595
aS'=COUNTIFS(record!B:B,report!B22,record!K:K,"late2")'
p596
aS'=COUNTIFS(record!B:B,report!B22,record!K:K,"late3")'
p597
aS'=IF(AND(E22="FTE",F22<>$F$2,G22=MAX(G:G),L22=0,M22=0,Q22<=5,R22=0,S22=0,T22=0,V22=0),"Y","N")'
p598
aV=COUNTIFS(record!B:B,report!B22,record!K:K,"\u65f7\u5de5\u534a\u5929")/2+COUNTIFS(record!B:B,report!B22,record!K:K,"\u65f7\u5de5")
p599
aS'=V22'
p600
aNaS"=VLOOKUP(A22,'[1]Annual Leave'!$A:$O,15,FALSE)"
p601
aS'=SUMIF(record!B:B,report!B22,record!M:M)'
p602
aS'=SUMIF(record!B:B,report!B22,record!O:O)'
p603
aS'=SUMIF(record!B:B,report!B22,record!N:N)'
p604
aS'=SUMIF(record!B:B,report!B22,record!P:P)'
p605
aS'=VLOOKUP(A22,[2]Report!$A:$AA,27,FALSE)'
p606
aV1031
p607
aa(lp608
VAE1215
p609
aV\u7f57\u84c9
p610
aVluo rong 
p611
ag37
ag96
ag68
aL22L
aS'=G23-L23-M23'
p612
aS'=G23-J23'
p613
aS'=L23+M23+N23+O23+T23'
p614
aS'=L23+M23+N23+O23+P23'
p615
aS"=VLOOKUP(A23,'[1]201510'!$A:$S,5,FALSE)"
p616
aS"=VLOOKUP(A23,'[1]201510'!$A:$AG,6,FALSE)"
p617
aS"=VLOOKUP(A23,'[1]201510'!$A:$U,7,FALSE)"
p618
aS"=VLOOKUP(A23,'[1]201510'!$A:$R,8,FALSE)"
p619
aS"=-VLOOKUP(A23,'[1]201510'!$A:$Y,10,FALSE)/8"
p620
aS'=N23+O23'
p621
aS'=COUNTIFS(record!B:B,report!B23,record!K:K,"late1")'
p622
aS'=COUNTIFS(record!B:B,report!B23,record!K:K,"late2")'
p623
aS'=COUNTIFS(record!B:B,report!B23,record!K:K,"late3")'
p624
aS'=IF(AND(E23="FTE",F23<>$F$2,G23=MAX(G:G),L23=0,M23=0,Q23<=5,R23=0,S23=0,T23=0,V23=0),"Y","N")'
p625
aV=COUNTIFS(record!B:B,report!B23,record!K:K,"\u65f7\u5de5\u534a\u5929")/2+COUNTIFS(record!B:B,report!B23,record!K:K,"\u65f7\u5de5")
p626
aS'=V23'
p627
aNaS"=VLOOKUP(A23,'[1]Annual Leave'!$A:$O,15,FALSE)"
p628
aS'=SUMIF(record!B:B,report!B23,record!M:M)'
p629
aS'=SUMIF(record!B:B,report!B23,record!O:O)'
p630
aS'=SUMIF(record!B:B,report!B23,record!N:N)'
p631
aS'=SUMIF(record!B:B,report!B23,record!P:P)'
p632
aS'=VLOOKUP(A23,[2]Report!$A:$AA,27,FALSE)'
p633
aV1033
p634
aa(lp635
VAE1224
p636
aV\u9122\u9ece
p637
aVyan li 
p638
ag37
ag96
ag68
aL22L
aS'=G24-L24-M24'
p639
aS'=G24-J24'
p640
aS'=L24+M24+N24+O24+T24'
p641
aS'=L24+M24+N24+O24+P24'
p642
aS"=VLOOKUP(A24,'[1]201510'!$A:$S,5,FALSE)"
p643
aS"=VLOOKUP(A24,'[1]201510'!$A:$AG,6,FALSE)"
p644
aS"=VLOOKUP(A24,'[1]201510'!$A:$U,7,FALSE)"
p645
aS"=VLOOKUP(A24,'[1]201510'!$A:$R,8,FALSE)"
p646
aS"=-VLOOKUP(A24,'[1]201510'!$A:$Y,10,FALSE)/8"
p647
aS'=N24+O24'
p648
aS'=COUNTIFS(record!B:B,report!B24,record!K:K,"late1")'
p649
aS'=COUNTIFS(record!B:B,report!B24,record!K:K,"late2")'
p650
aS'=COUNTIFS(record!B:B,report!B24,record!K:K,"late3")'
p651
aS'=IF(AND(E24="FTE",F24<>$F$2,G24=MAX(G:G),L24=0,M24=0,Q24<=5,R24=0,S24=0,T24=0,V24=0),"Y","N")'
p652
aV=COUNTIFS(record!B:B,report!B24,record!K:K,"\u65f7\u5de5\u534a\u5929")/2+COUNTIFS(record!B:B,report!B24,record!K:K,"\u65f7\u5de5")
p653
aS'=V24'
p654
aNaS"=VLOOKUP(A24,'[1]Annual Leave'!$A:$O,15,FALSE)"
p655
aS'=SUMIF(record!B:B,report!B24,record!M:M)'
p656
aS'=SUMIF(record!B:B,report!B24,record!O:O)'
p657
aS'=SUMIF(record!B:B,report!B24,record!N:N)'
p658
aS'=SUMIF(record!B:B,report!B24,record!P:P)'
p659
aS'=VLOOKUP(A24,[2]Report!$A:$AA,27,FALSE)'
p660
aV1035
p661
aa(lp662
VAE1238
p663
aV\u738b\u8389
p664
aVwang li 
p665
ag37
ag96
ag68
aL22L
aS'=G25-L25-M25'
p666
aS'=G25-J25'
p667
aS'=L25+M25+N25+O25+T25'
p668
aS'=L25+M25+N25+O25+P25'
p669
aS"=VLOOKUP(A25,'[1]201510'!$A:$S,5,FALSE)"
p670
aS"=VLOOKUP(A25,'[1]201510'!$A:$AG,6,FALSE)"
p671
aS"=VLOOKUP(A25,'[1]201510'!$A:$U,7,FALSE)"
p672
aS"=VLOOKUP(A25,'[1]201510'!$A:$R,8,FALSE)"
p673
aS"=-VLOOKUP(A25,'[1]201510'!$A:$Y,10,FALSE)/8"
p674
aS'=N25+O25'
p675
aS'=COUNTIFS(record!B:B,report!B25,record!K:K,"late1")'
p676
aS'=COUNTIFS(record!B:B,report!B25,record!K:K,"late2")'
p677
aS'=COUNTIFS(record!B:B,report!B25,record!K:K,"late3")'
p678
aS'=IF(AND(E25="FTE",F25<>$F$2,G25=MAX(G:G),L25=0,M25=0,Q25<=5,R25=0,S25=0,T25=0,V25=0),"Y","N")'
p679
aV=COUNTIFS(record!B:B,report!B25,record!K:K,"\u65f7\u5de5\u534a\u5929")/2+COUNTIFS(record!B:B,report!B25,record!K:K,"\u65f7\u5de5")
p680
aS'=V25'
p681
aNaS"=VLOOKUP(A25,'[1]Annual Leave'!$A:$O,15,FALSE)"
p682
aS'=SUMIF(record!B:B,report!B25,record!M:M)'
p683
aS'=SUMIF(record!B:B,report!B25,record!O:O)'
p684
aS'=SUMIF(record!B:B,report!B25,record!N:N)'
p685
aS'=SUMIF(record!B:B,report!B25,record!P:P)'
p686
aS'=VLOOKUP(A25,[2]Report!$A:$AA,27,FALSE)'
p687
aV1037
p688
aa(lp689
VAE1249
p690
aV\u5362\u6c38\u4eae
p691
aVlu yongliang 
p692
ag37
ag96
ag68
aL22L
aS'=G26-L26-M26'
p693
aS'=G26-J26'
p694
aS'=L26+M26+N26+O26+T26'
p695
aS'=L26+M26+N26+O26+P26'
p696
aS"=VLOOKUP(A26,'[1]201510'!$A:$S,5,FALSE)"
p697
aS"=VLOOKUP(A26,'[1]201510'!$A:$AG,6,FALSE)"
p698
aS"=VLOOKUP(A26,'[1]201510'!$A:$U,7,FALSE)"
p699
aS"=VLOOKUP(A26,'[1]201510'!$A:$R,8,FALSE)"
p700
aS"=-VLOOKUP(A26,'[1]201510'!$A:$Y,10,FALSE)/8"
p701
aS'=N26+O26'
p702
aS'=COUNTIFS(record!B:B,report!B26,record!K:K,"late1")'
p703
aS'=COUNTIFS(record!B:B,report!B26,record!K:K,"late2")'
p704
aS'=COUNTIFS(record!B:B,report!B26,record!K:K,"late3")'
p705
aS'=IF(AND(E26="FTE",F26<>$F$2,G26=MAX(G:G),L26=0,M26=0,Q26<=5,R26=0,S26=0,T26=0,V26=0),"Y","N")'
p706
aV=COUNTIFS(record!B:B,report!B26,record!K:K,"\u65f7\u5de5\u534a\u5929")/2+COUNTIFS(record!B:B,report!B26,record!K:K,"\u65f7\u5de5")
p707
aS'=V26'
p708
aNaS"=VLOOKUP(A26,'[1]Annual Leave'!$A:$O,15,FALSE)"
p709
aS'=SUMIF(record!B:B,report!B26,record!M:M)'
p710
aS'=SUMIF(record!B:B,report!B26,record!O:O)'
p711
aS'=SUMIF(record!B:B,report!B26,record!N:N)'
p712
aS'=SUMIF(record!B:B,report!B26,record!P:P)'
p713
aS'=VLOOKUP(A26,[2]Report!$A:$AA,27,FALSE)'
p714
aV1038
p715
aa(lp716
VAE1258
p717
aV\u66fe\u83c1
p718
aVzeng jing 
p719
ag37
ag96
aVFlexible
p720
aL22L
aS'=G27-L27-M27'
p721
aS'=G27-J27'
p722
aS'=L27+M27+N27+O27+T27'
p723
aS'=L27+M27+N27+O27+P27'
p724
aS"=VLOOKUP(A27,'[1]201510'!$A:$S,5,FALSE)"
p725
aS"=VLOOKUP(A27,'[1]201510'!$A:$AG,6,FALSE)"
p726
aS"=VLOOKUP(A27,'[1]201510'!$A:$U,7,FALSE)"
p727
aS"=VLOOKUP(A27,'[1]201510'!$A:$R,8,FALSE)"
p728
aS"=-VLOOKUP(A27,'[1]201510'!$A:$Y,10,FALSE)/8"
p729
aS'=N27+O27'
p730
aS'=COUNTIFS(record!B:B,report!B27,record!K:K,"late1")'
p731
aS'=COUNTIFS(record!B:B,report!B27,record!K:K,"late2")'
p732
aS'=COUNTIFS(record!B:B,report!B27,record!K:K,"late3")'
p733
aS'=IF(AND(E27="FTE",F27<>$F$2,G27=MAX(G:G),L27=0,M27=0,Q27<=5,R27=0,S27=0,T27=0,V27=0),"Y","N")'
p734
aV=COUNTIFS(record!B:B,report!B27,record!K:K,"\u65f7\u5de5\u534a\u5929")/2+COUNTIFS(record!B:B,report!B27,record!K:K,"\u65f7\u5de5")
p735
aS'=V27'
p736
aNaS"=VLOOKUP(A27,'[1]Annual Leave'!$A:$O,15,FALSE)"
p737
aS'=SUMIF(record!B:B,report!B27,record!M:M)'
p738
aS'=SUMIF(record!B:B,report!B27,record!O:O)'
p739
aS'=SUMIF(record!B:B,report!B27,record!N:N)'
p740
aS'=SUMIF(record!B:B,report!B27,record!P:P)'
p741
aS'=VLOOKUP(A27,[2]Report!$A:$AA,27,FALSE)'
p742
aV1039
p743
aa(lp744
VAE1278
p745
aV\u5f20\u5929\u73b2
p746
aVzhang tianling
p747
ag37
ag96
ag68
aL22L
aS'=G28-L28-M28'
p748
aS'=G28-J28'
p749
aS'=L28+M28+N28+O28+T28'
p750
aS'=L28+M28+N28+O28+P28'
p751
aS"=VLOOKUP(A28,'[1]201510'!$A:$S,5,FALSE)"
p752
aS"=VLOOKUP(A28,'[1]201510'!$A:$AG,6,FALSE)"
p753
aS"=VLOOKUP(A28,'[1]201510'!$A:$U,7,FALSE)"
p754
aS"=VLOOKUP(A28,'[1]201510'!$A:$R,8,FALSE)"
p755
aS"=-VLOOKUP(A28,'[1]201510'!$A:$Y,10,FALSE)/8"
p756
aS'=N28+O28'
p757
aS'=COUNTIFS(record!B:B,report!B28,record!K:K,"late1")'
p758
aS'=COUNTIFS(record!B:B,report!B28,record!K:K,"late2")'
p759
aS'=COUNTIFS(record!B:B,report!B28,record!K:K,"late3")'
p760
aS'=IF(AND(E28="FTE",F28<>$F$2,G28=MAX(G:G),L28=0,M28=0,Q28<=5,R28=0,S28=0,T28=0,V28=0),"Y","N")'
p761
aV=COUNTIFS(record!B:B,report!B28,record!K:K,"\u65f7\u5de5\u534a\u5929")/2+COUNTIFS(record!B:B,report!B28,record!K:K,"\u65f7\u5de5")
p762
aS'=V28'
p763
aNaS"=VLOOKUP(A28,'[1]Annual Leave'!$A:$O,15,FALSE)"
p764
aS'=SUMIF(record!B:B,report!B28,record!M:M)'
p765
aS'=SUMIF(record!B:B,report!B28,record!O:O)'
p766
aS'=SUMIF(record!B:B,report!B28,record!N:N)'
p767
aS'=SUMIF(record!B:B,report!B28,record!P:P)'
p768
aVlindsay.zhang@smalltreemedia.com
p769
aV1041
p770
aa(lp771
VAE1281
p772
aV\u8c22\u660e\u6021
p773
aVxie mingyi
p774
ag37
ag96
ag68
aL22L
aS'=G29-L29-M29'
p775
aS'=G29-J29'
p776
aS'=L29+M29+N29+O29+T29'
p777
aS'=L29+M29+N29+O29+P29'
p778
aS"=VLOOKUP(A29,'[1]201510'!$A:$S,5,FALSE)"
p779
aS"=VLOOKUP(A29,'[1]201510'!$A:$AG,6,FALSE)"
p780
aS"=VLOOKUP(A29,'[1]201510'!$A:$U,7,FALSE)"
p781
aS"=VLOOKUP(A29,'[1]201510'!$A:$R,8,FALSE)"
p782
aS"=-VLOOKUP(A29,'[1]201510'!$A:$Y,10,FALSE)/8"
p783
aS'=N29+O29'
p784
aS'=COUNTIFS(record!B:B,report!B29,record!K:K,"late1")'
p785
aS'=COUNTIFS(record!B:B,report!B29,record!K:K,"late2")'
p786
aS'=COUNTIFS(record!B:B,report!B29,record!K:K,"late3")'
p787
aS'=IF(AND(E29="FTE",F29<>$F$2,G29=MAX(G:G),L29=0,M29=0,Q29<=5,R29=0,S29=0,T29=0,V29=0),"Y","N")'
p788
aV=COUNTIFS(record!B:B,report!B29,record!K:K,"\u65f7\u5de5\u534a\u5929")/2+COUNTIFS(record!B:B,report!B29,record!K:K,"\u65f7\u5de5")
p789
aS'=V29'
p790
aNaS"=VLOOKUP(A29,'[1]Annual Leave'!$A:$O,15,FALSE)"
p791
aS'=SUMIF(record!B:B,report!B29,record!M:M)'
p792
aS'=SUMIF(record!B:B,report!B29,record!O:O)'
p793
aS'=SUMIF(record!B:B,report!B29,record!N:N)'
p794
aS'=SUMIF(record!B:B,report!B29,record!P:P)'
p795
aS'=VLOOKUP(A29,[2]Report!$A:$AA,27,FALSE)'
p796
aV1042
p797
aa(lp798
VAE1291
p799
aV\u8d56\u52e4
p800
aVlai qin
p801
ag37
ag96
ag68
aL22L
aS'=G30-L30-M30'
p802
aS'=G30-J30'
p803
aS'=L30+M30+N30+O30+T30'
p804
aS'=L30+M30+N30+O30+P30'
p805
aS"=VLOOKUP(A30,'[1]201510'!$A:$S,5,FALSE)"
p806
aS"=VLOOKUP(A30,'[1]201510'!$A:$AG,6,FALSE)"
p807
aS"=VLOOKUP(A30,'[1]201510'!$A:$U,7,FALSE)"
p808
aS"=VLOOKUP(A30,'[1]201510'!$A:$R,8,FALSE)"
p809
aS"=-VLOOKUP(A30,'[1]201510'!$A:$Y,10,FALSE)/8"
p810
aS'=N30+O30'
p811
aS'=COUNTIFS(record!B:B,report!B30,record!K:K,"late1")'
p812
aS'=COUNTIFS(record!B:B,report!B30,record!K:K,"late2")'
p813
aS'=COUNTIFS(record!B:B,report!B30,record!K:K,"late3")'
p814
aS'=IF(AND(E30="FTE",F30<>$F$2,G30=MAX(G:G),L30=0,M30=0,Q30<=5,R30=0,S30=0,T30=0,V30=0),"Y","N")'
p815
aV=COUNTIFS(record!B:B,report!B30,record!K:K,"\u65f7\u5de5\u534a\u5929")/2+COUNTIFS(record!B:B,report!B30,record!K:K,"\u65f7\u5de5")
p816
aS'=V30'
p817
aNaS"=VLOOKUP(A30,'[1]Annual Leave'!$A:$O,15,FALSE)"
p818
aS'=SUMIF(record!B:B,report!B30,record!M:M)'
p819
aS'=SUMIF(record!B:B,report!B30,record!O:O)'
p820
aS'=SUMIF(record!B:B,report!B30,record!N:N)'
p821
aS'=SUMIF(record!B:B,report!B30,record!P:P)'
p822
aS'=VLOOKUP(A30,[2]Report!$A:$AA,27,FALSE)'
p823
aV1043
p824
aa(lp825
VAE1292
p826
aV\u5434\u6167
p827
aVwu hui
p828
ag37
ag96
ag68
aL22L
aS'=G31-L31-M31'
p829
aS'=G31-J31'
p830
aS'=L31+M31+N31+O31+T31'
p831
aS'=L31+M31+N31+O31+P31'
p832
aS"=VLOOKUP(A31,'[1]201510'!$A:$S,5,FALSE)"
p833
aS"=VLOOKUP(A31,'[1]201510'!$A:$AG,6,FALSE)"
p834
aS"=VLOOKUP(A31,'[1]201510'!$A:$U,7,FALSE)"
p835
aS"=VLOOKUP(A31,'[1]201510'!$A:$R,8,FALSE)"
p836
aS"=-VLOOKUP(A31,'[1]201510'!$A:$Y,10,FALSE)/8"
p837
aS'=N31+O31'
p838
aS'=COUNTIFS(record!B:B,report!B31,record!K:K,"late1")'
p839
aS'=COUNTIFS(record!B:B,report!B31,record!K:K,"late2")'
p840
aS'=COUNTIFS(record!B:B,report!B31,record!K:K,"late3")'
p841
aS'=IF(AND(E31="FTE",F31<>$F$2,G31=MAX(G:G),L31=0,M31=0,Q31<=5,R31=0,S31=0,T31=0,V31=0),"Y","N")'
p842
aV=COUNTIFS(record!B:B,report!B31,record!K:K,"\u65f7\u5de5\u534a\u5929")/2+COUNTIFS(record!B:B,report!B31,record!K:K,"\u65f7\u5de5")
p843
aS'=V31'
p844
aNaS"=VLOOKUP(A31,'[1]Annual Leave'!$A:$O,15,FALSE)"
p845
aS'=SUMIF(record!B:B,report!B31,record!M:M)'
p846
aS'=SUMIF(record!B:B,report!B31,record!O:O)'
p847
aS'=SUMIF(record!B:B,report!B31,record!N:N)'
p848
aS'=SUMIF(record!B:B,report!B31,record!P:P)'
p849
aS'=VLOOKUP(A31,[2]Report!$A:$AA,27,FALSE)'
p850
aV1044
p851
aa(lp852
VAE1301
p853
aV\u795d\u5a77
p854
aVzhu ting
p855
ag37
ag67
ag68
aL22L
aS'=G32-L32-M32'
p856
aS'=G32-J32'
p857
aS'=L32+M32+N32+O32+T32'
p858
aS'=L32+M32+N32+O32+P32'
p859
aS"=VLOOKUP(A32,'[1]201510'!$A:$S,5,FALSE)"
p860
aS"=VLOOKUP(A32,'[1]201510'!$A:$AG,6,FALSE)"
p861
aS"=VLOOKUP(A32,'[1]201510'!$A:$U,7,FALSE)"
p862
aS"=VLOOKUP(A32,'[1]201510'!$A:$R,8,FALSE)"
p863
aS"=-VLOOKUP(A32,'[1]201510'!$A:$Y,10,FALSE)/8"
p864
aS'=N32+O32'
p865
aS'=COUNTIFS(record!B:B,report!B32,record!K:K,"late1")'
p866
aS'=COUNTIFS(record!B:B,report!B32,record!K:K,"late2")'
p867
aS'=COUNTIFS(record!B:B,report!B32,record!K:K,"late3")'
p868
aS'=IF(AND(E32="FTE",F32<>$F$2,G32=MAX(G:G),L32=0,M32=0,Q32<=5,R32=0,S32=0,T32=0,V32=0),"Y","N")'
p869
aV=COUNTIFS(record!B:B,report!B32,record!K:K,"\u65f7\u5de5\u534a\u5929")/2+COUNTIFS(record!B:B,report!B32,record!K:K,"\u65f7\u5de5")
p870
aS'=V32'
p871
aNaS"=VLOOKUP(A32,'[1]Annual Leave'!$A:$O,15,FALSE)"
p872
aS'=SUMIF(record!B:B,report!B32,record!M:M)'
p873
aS'=SUMIF(record!B:B,report!B32,record!O:O)'
p874
aS'=SUMIF(record!B:B,report!B32,record!N:N)'
p875
aS'=SUMIF(record!B:B,report!B32,record!P:P)'
p876
aS'=VLOOKUP(A32,[2]Report!$A:$AA,27,FALSE)'
p877
aV1045
p878
aa(lp879
VAE1306
p880
aV\u90b9\u4e25\u83b9
p881
aVzou yanying
p882
ag37
ag67
ag68
aL22L
aS'=G33-L33-M33'
p883
aS'=G33-J33'
p884
aS'=L33+M33+N33+O33+T33'
p885
aS'=L33+M33+N33+O33+P33'
p886
aS"=VLOOKUP(A33,'[1]201510'!$A:$S,5,FALSE)"
p887
aS"=VLOOKUP(A33,'[1]201510'!$A:$AG,6,FALSE)"
p888
aS"=VLOOKUP(A33,'[1]201510'!$A:$U,7,FALSE)"
p889
aS"=VLOOKUP(A33,'[1]201510'!$A:$R,8,FALSE)"
p890
aS"=-VLOOKUP(A33,'[1]201510'!$A:$Y,10,FALSE)/8"
p891
aS'=N33+O33'
p892
aS'=COUNTIFS(record!B:B,report!B33,record!K:K,"late1")'
p893
aS'=COUNTIFS(record!B:B,report!B33,record!K:K,"late2")'
p894
aS'=COUNTIFS(record!B:B,report!B33,record!K:K,"late3")'
p895
aS'=IF(AND(E33="FTE",F33<>$F$2,G33=MAX(G:G),L33=0,M33=0,Q33<=5,R33=0,S33=0,T33=0,V33=0),"Y","N")'
p896
aV=COUNTIFS(record!B:B,report!B33,record!K:K,"\u65f7\u5de5\u534a\u5929")/2+COUNTIFS(record!B:B,report!B33,record!K:K,"\u65f7\u5de5")
p897
aS'=V33'
p898
aNaS"=VLOOKUP(A33,'[1]Annual Leave'!$A:$O,15,FALSE)"
p899
aS'=SUMIF(record!B:B,report!B33,record!M:M)'
p900
aS'=SUMIF(record!B:B,report!B33,record!O:O)'
p901
aS'=SUMIF(record!B:B,report!B33,record!N:N)'
p902
aS'=SUMIF(record!B:B,report!B33,record!P:P)'
p903
aS'=VLOOKUP(A33,[2]Report!$A:$AA,27,FALSE)'
p904
aV1046
p905
aa(lp906
VAE1308
p907
aV\u9f99\u831c\u8c26
p908
aVlong qianqian
p909
ag37
ag67
ag68
aL22L
aS'=G34-L34-M34'
p910
aS'=G34-J34'
p911
aS'=L34+M34+N34+O34+T34'
p912
aS'=L34+M34+N34+O34+P34'
p913
aS"=VLOOKUP(A34,'[1]201510'!$A:$S,5,FALSE)"
p914
aS"=VLOOKUP(A34,'[1]201510'!$A:$AG,6,FALSE)"
p915
aS"=VLOOKUP(A34,'[1]201510'!$A:$U,7,FALSE)"
p916
aS"=VLOOKUP(A34,'[1]201510'!$A:$R,8,FALSE)"
p917
aS"=-VLOOKUP(A34,'[1]201510'!$A:$Y,10,FALSE)/8"
p918
aS'=N34+O34'
p919
aS'=COUNTIFS(record!B:B,report!B34,record!K:K,"late1")'
p920
aS'=COUNTIFS(record!B:B,report!B34,record!K:K,"late2")'
p921
aS'=COUNTIFS(record!B:B,report!B34,record!K:K,"late3")'
p922
aS'=IF(AND(E34="FTE",F34<>$F$2,G34=MAX(G:G),L34=0,M34=0,Q34<=5,R34=0,S34=0,T34=0,V34=0),"Y","N")'
p923
aV=COUNTIFS(record!B:B,report!B34,record!K:K,"\u65f7\u5de5\u534a\u5929")/2+COUNTIFS(record!B:B,report!B34,record!K:K,"\u65f7\u5de5")
p924
aS'=V34'
p925
aNaS"=VLOOKUP(A34,'[1]Annual Leave'!$A:$O,15,FALSE)"
p926
aS'=SUMIF(record!B:B,report!B34,record!M:M)'
p927
aS'=SUMIF(record!B:B,report!B34,record!O:O)'
p928
aS'=SUMIF(record!B:B,report!B34,record!N:N)'
p929
aS'=SUMIF(record!B:B,report!B34,record!P:P)'
p930
aS'=VLOOKUP(A34,[2]Report!$A:$AA,27,FALSE)'
p931
aV1047
p932
aa(lp933
VAE1322
p934
aV\u5f20\u8fce\u6d01
p935
aVZhang Yingjie
p936
ag37
ag67
ag68
aL22L
aS'=G35-L35-M35'
p937
aS'=G35-J35'
p938
aS'=L35+M35+N35+O35+T35'
p939
aS'=L35+M35+N35+O35+P35'
p940
aS"=VLOOKUP(A35,'[1]201510'!$A:$S,5,FALSE)"
p941
aS"=VLOOKUP(A35,'[1]201510'!$A:$AG,6,FALSE)"
p942
aS"=VLOOKUP(A35,'[1]201510'!$A:$U,7,FALSE)"
p943
aS"=VLOOKUP(A35,'[1]201510'!$A:$R,8,FALSE)"
p944
aS"=-VLOOKUP(A35,'[1]201510'!$A:$Y,10,FALSE)/8"
p945
aS'=N35+O35'
p946
aS'=COUNTIFS(record!B:B,report!B35,record!K:K,"late1")'
p947
aS'=COUNTIFS(record!B:B,report!B35,record!K:K,"late2")'
p948
aS'=COUNTIFS(record!B:B,report!B35,record!K:K,"late3")'
p949
aS'=IF(AND(E35="FTE",F35<>$F$2,G35=MAX(G:G),L35=0,M35=0,Q35<=5,R35=0,S35=0,T35=0,V35=0),"Y","N")'
p950
aV=COUNTIFS(record!B:B,report!B35,record!K:K,"\u65f7\u5de5\u534a\u5929")/2+COUNTIFS(record!B:B,report!B35,record!K:K,"\u65f7\u5de5")
p951
aS'=V35'
p952
aNaS"=VLOOKUP(A35,'[1]Annual Leave'!$A:$O,15,FALSE)"
p953
aS'=SUMIF(record!B:B,report!B35,record!M:M)'
p954
aS'=SUMIF(record!B:B,report!B35,record!O:O)'
p955
aS'=SUMIF(record!B:B,report!B35,record!N:N)'
p956
aS'=SUMIF(record!B:B,report!B35,record!P:P)'
p957
aS'=VLOOKUP(A35,[2]Report!$A:$AA,27,FALSE)'
p958
aV1049
p959
aa(lp960
VAE1332
p961
aV\u502a\u6f84\u65b0
p962
aVNi Chengxin
p963
ag37
ag67
ag39
aL22L
aS'=G36-L36-M36'
p964
aS'=G36-J36'
p965
aS'=L36+M36+N36+O36+T36'
p966
aS'=L36+M36+N36+O36+P36'
p967
aS"=VLOOKUP(A36,'[1]201510'!$A:$S,5,FALSE)"
p968
aS"=VLOOKUP(A36,'[1]201510'!$A:$AG,6,FALSE)"
p969
aS"=VLOOKUP(A36,'[1]201510'!$A:$U,7,FALSE)"
p970
aS"=VLOOKUP(A36,'[1]201510'!$A:$R,8,FALSE)"
p971
aS"=-VLOOKUP(A36,'[1]201510'!$A:$Y,10,FALSE)/8"
p972
aS'=N36+O36'
p973
aS'=COUNTIFS(record!B:B,report!B36,record!K:K,"late1")'
p974
aS'=COUNTIFS(record!B:B,report!B36,record!K:K,"late2")'
p975
aS'=COUNTIFS(record!B:B,report!B36,record!K:K,"late3")'
p976
aS'=IF(AND(E36="FTE",F36<>$F$2,G36=MAX(G:G),L36=0,M36=0,Q36<=5,R36=0,S36=0,T36=0,V36=0),"Y","N")'
p977
aV=COUNTIFS(record!B:B,report!B36,record!K:K,"\u65f7\u5de5\u534a\u5929")/2+COUNTIFS(record!B:B,report!B36,record!K:K,"\u65f7\u5de5")
p978
aS'=V36'
p979
aNaS"=VLOOKUP(A36,'[1]Annual Leave'!$A:$O,15,FALSE)"
p980
aS'=SUMIF(record!B:B,report!B36,record!M:M)'
p981
aS'=SUMIF(record!B:B,report!B36,record!O:O)'
p982
aS'=SUMIF(record!B:B,report!B36,record!N:N)'
p983
aS'=SUMIF(record!B:B,report!B36,record!P:P)'
p984
aS'=VLOOKUP(A36,[2]Report!$A:$AA,27,FALSE)'
p985
aV1050
p986
aa(lp987
VAE1345
p988
aV\u6731\u5b87\u5349
p989
aVFlora Zhu Yuhui
p990
ag37
ag67
ag68
aL22L
aS'=G37-L37-M37'
p991
aS'=G37-J37'
p992
aS'=L37+M37+N37+O37+T37'
p993
aS'=L37+M37+N37+O37+P37'
p994
aS"=VLOOKUP(A37,'[1]201510'!$A:$S,5,FALSE)"
p995
aS"=VLOOKUP(A37,'[1]201510'!$A:$AG,6,FALSE)"
p996
aS"=VLOOKUP(A37,'[1]201510'!$A:$U,7,FALSE)"
p997
aS"=VLOOKUP(A37,'[1]201510'!$A:$R,8,FALSE)"
p998
aS"=-VLOOKUP(A37,'[1]201510'!$A:$Y,10,FALSE)/8"
p999
aS'=N37+O37'
p1000
aS'=COUNTIFS(record!B:B,report!B37,record!K:K,"late1")'
p1001
aS'=COUNTIFS(record!B:B,report!B37,record!K:K,"late2")'
p1002
aS'=COUNTIFS(record!B:B,report!B37,record!K:K,"late3")'
p1003
aS'=IF(AND(E37="FTE",F37<>$F$2,G37=MAX(G:G),L37=0,M37=0,Q37<=5,R37=0,S37=0,T37=0,V37=0),"Y","N")'
p1004
aV=COUNTIFS(record!B:B,report!B37,record!K:K,"\u65f7\u5de5\u534a\u5929")/2+COUNTIFS(record!B:B,report!B37,record!K:K,"\u65f7\u5de5")
p1005
aS'=V37'
p1006
aV\u53e3\u5934\u8b66\u544a
p1007
aS"=VLOOKUP(A37,'[1]Annual Leave'!$A:$O,15,FALSE)"
p1008
aS'=SUMIF(record!B:B,report!B37,record!M:M)'
p1009
aS'=SUMIF(record!B:B,report!B37,record!O:O)'
p1010
aS'=SUMIF(record!B:B,report!B37,record!N:N)'
p1011
aS'=SUMIF(record!B:B,report!B37,record!P:P)'
p1012
aS'=VLOOKUP(A37,[2]Report!$A:$AA,27,FALSE)'
p1013
aV1051
p1014
aa(lp1015
VAE1348
p1016
aV\u949f\u4f1f
p1017
aVZhong Wei
p1018
ag37
ag67
ag68
aL22L
aS'=G38-L38-M38'
p1019
aS'=G38-J38'
p1020
aS'=L38+M38+N38+O38+T38'
p1021
aS'=L38+M38+N38+O38+P38'
p1022
aS"=VLOOKUP(A38,'[1]201510'!$A:$S,5,FALSE)"
p1023
aS"=VLOOKUP(A38,'[1]201510'!$A:$AG,6,FALSE)"
p1024
aS"=VLOOKUP(A38,'[1]201510'!$A:$U,7,FALSE)"
p1025
aS"=VLOOKUP(A38,'[1]201510'!$A:$R,8,FALSE)"
p1026
aS"=-VLOOKUP(A38,'[1]201510'!$A:$Y,10,FALSE)/8"
p1027
aS'=N38+O38'
p1028
aS'=COUNTIFS(record!B:B,report!B38,record!K:K,"late1")'
p1029
aS'=COUNTIFS(record!B:B,report!B38,record!K:K,"late2")'
p1030
aS'=COUNTIFS(record!B:B,report!B38,record!K:K,"late3")'
p1031
aS'=IF(AND(E38="FTE",F38<>$F$2,G38=MAX(G:G),L38=0,M38=0,Q38<=5,R38=0,S38=0,T38=0,V38=0),"Y","N")'
p1032
aV=COUNTIFS(record!B:B,report!B38,record!K:K,"\u65f7\u5de5\u534a\u5929")/2+COUNTIFS(record!B:B,report!B38,record!K:K,"\u65f7\u5de5")
p1033
aS'=V38'
p1034
aNaS"=VLOOKUP(A38,'[1]Annual Leave'!$A:$O,15,FALSE)"
p1035
aS'=SUMIF(record!B:B,report!B38,record!M:M)'
p1036
aS'=SUMIF(record!B:B,report!B38,record!O:O)'
p1037
aS'=SUMIF(record!B:B,report!B38,record!N:N)'
p1038
aS'=SUMIF(record!B:B,report!B38,record!P:P)'
p1039
aS'=VLOOKUP(A38,[2]Report!$A:$AA,27,FALSE)'
p1040
aV1052
p1041
aa(lp1042
VAE1349
p1043
aV\u5510\u4f1f
p1044
aVTomwey Tang Wei
p1045
ag37
ag67
ag68
aL22L
aS'=G39-L39-M39'
p1046
aS'=G39-J39'
p1047
aS'=L39+M39+N39+O39+T39'
p1048
aS'=L39+M39+N39+O39+P39'
p1049
aS"=VLOOKUP(A39,'[1]201510'!$A:$S,5,FALSE)"
p1050
aS"=VLOOKUP(A39,'[1]201510'!$A:$AG,6,FALSE)"
p1051
aS"=VLOOKUP(A39,'[1]201510'!$A:$U,7,FALSE)"
p1052
aS"=VLOOKUP(A39,'[1]201510'!$A:$R,8,FALSE)"
p1053
aS"=-VLOOKUP(A39,'[1]201510'!$A:$Y,10,FALSE)/8"
p1054
aS'=N39+O39'
p1055
aS'=COUNTIFS(record!B:B,report!B39,record!K:K,"late1")'
p1056
aS'=COUNTIFS(record!B:B,report!B39,record!K:K,"late2")'
p1057
aS'=COUNTIFS(record!B:B,report!B39,record!K:K,"late3")'
p1058
aS'=IF(AND(E39="FTE",F39<>$F$2,G39=MAX(G:G),L39=0,M39=0,Q39<=5,R39=0,S39=0,T39=0,V39=0),"Y","N")'
p1059
aV=COUNTIFS(record!B:B,report!B39,record!K:K,"\u65f7\u5de5\u534a\u5929")/2+COUNTIFS(record!B:B,report!B39,record!K:K,"\u65f7\u5de5")
p1060
aS'=V39'
p1061
aNaS"=VLOOKUP(A39,'[1]Annual Leave'!$A:$O,15,FALSE)"
p1062
aS'=SUMIF(record!B:B,report!B39,record!M:M)'
p1063
aS'=SUMIF(record!B:B,report!B39,record!O:O)'
p1064
aS'=SUMIF(record!B:B,report!B39,record!N:N)'
p1065
aS'=SUMIF(record!B:B,report!B39,record!P:P)'
p1066
aS'=VLOOKUP(A39,[2]Report!$A:$AA,27,FALSE)'
p1067
aV1053
p1068
aa(lp1069
VAE1358
p1070
aV\u5170\u53f6\u65ce
p1071
aVJenny Lan Yeni
p1072
ag37
ag67
ag39
aL22L
aS'=G40-L40-M40'
p1073
aS'=G40-J40'
p1074
aS'=L40+M40+N40+O40+T40'
p1075
aS'=L40+M40+N40+O40+P40'
p1076
aS"=VLOOKUP(A40,'[1]201510'!$A:$S,5,FALSE)"
p1077
aS"=VLOOKUP(A40,'[1]201510'!$A:$AG,6,FALSE)"
p1078
aS"=VLOOKUP(A40,'[1]201510'!$A:$U,7,FALSE)"
p1079
aS"=VLOOKUP(A40,'[1]201510'!$A:$R,8,FALSE)"
p1080
aS"=-VLOOKUP(A40,'[1]201510'!$A:$Y,10,FALSE)/8"
p1081
aS'=N40+O40'
p1082
aS'=COUNTIFS(record!B:B,report!B40,record!K:K,"late1")'
p1083
aS'=COUNTIFS(record!B:B,report!B40,record!K:K,"late2")'
p1084
aS'=COUNTIFS(record!B:B,report!B40,record!K:K,"late3")'
p1085
aS'=IF(AND(E40="FTE",F40<>$F$2,G40=MAX(G:G),L40=0,M40=0,Q40<=5,R40=0,S40=0,T40=0,V40=0),"Y","N")'
p1086
aV=COUNTIFS(record!B:B,report!B40,record!K:K,"\u65f7\u5de5\u534a\u5929")/2+COUNTIFS(record!B:B,report!B40,record!K:K,"\u65f7\u5de5")
p1087
aS'=V40'
p1088
aNaS"=VLOOKUP(A40,'[1]Annual Leave'!$A:$O,15,FALSE)"
p1089
aS'=SUMIF(record!B:B,report!B40,record!M:M)'
p1090
aS'=SUMIF(record!B:B,report!B40,record!O:O)'
p1091
aS'=SUMIF(record!B:B,report!B40,record!N:N)'
p1092
aS'=SUMIF(record!B:B,report!B40,record!P:P)'
p1093
aS'=VLOOKUP(A40,[2]Report!$A:$AA,27,FALSE)'
p1094
aV1056
p1095
aa(lp1096
VAE1376
p1097
aV\u8983\u9732
p1098
aVChinoo Qin Lu
p1099
ag37
ag67
ag341
aL22L
aS'=G41-L41-M41'
p1100
aS'=G41-J41'
p1101
aS'=L41+M41+N41+O41+T41'
p1102
aS'=L41+M41+N41+O41+P41'
p1103
aS"=VLOOKUP(A41,'[1]201510'!$A:$S,5,FALSE)"
p1104
aS"=VLOOKUP(A41,'[1]201510'!$A:$AG,6,FALSE)"
p1105
aS"=VLOOKUP(A41,'[1]201510'!$A:$U,7,FALSE)"
p1106
aS"=VLOOKUP(A41,'[1]201510'!$A:$R,8,FALSE)"
p1107
aS"=-VLOOKUP(A41,'[1]201510'!$A:$Y,10,FALSE)/8"
p1108
aS'=N41+O41'
p1109
aS'=COUNTIFS(record!B:B,report!B41,record!K:K,"late1")'
p1110
aS'=COUNTIFS(record!B:B,report!B41,record!K:K,"late2")'
p1111
aS'=COUNTIFS(record!B:B,report!B41,record!K:K,"late3")'
p1112
aS'=IF(AND(E41="FTE",F41<>$F$2,G41=MAX(G:G),L41=0,M41=0,Q41<=5,R41=0,S41=0,T41=0,V41=0),"Y","N")'
p1113
aV=COUNTIFS(record!B:B,report!B41,record!K:K,"\u65f7\u5de5\u534a\u5929")/2+COUNTIFS(record!B:B,report!B41,record!K:K,"\u65f7\u5de5")
p1114
aS'=V41'
p1115
aNaS"=VLOOKUP(A41,'[1]Annual Leave'!$A:$O,15,FALSE)"
p1116
aS'=SUMIF(record!B:B,report!B41,record!M:M)'
p1117
aS'=SUMIF(record!B:B,report!B41,record!O:O)'
p1118
aS'=SUMIF(record!B:B,report!B41,record!N:N)'
p1119
aS'=SUMIF(record!B:B,report!B41,record!P:P)'
p1120
aS'=VLOOKUP(A41,[2]Report!$A:$AA,27,FALSE)'
p1121
aV1057
p1122
aa(lp1123
VAE1377
p1124
aV\u5b89\u674f
p1125
aVAn Xing
p1126
ag37
ag67
ag68
aL22L
aS'=G42-L42-M42'
p1127
aS'=G42-J42'
p1128
aS'=L42+M42+N42+O42+T42'
p1129
aS'=L42+M42+N42+O42+P42'
p1130
aS"=VLOOKUP(A42,'[1]201510'!$A:$S,5,FALSE)"
p1131
aS"=VLOOKUP(A42,'[1]201510'!$A:$AG,6,FALSE)"
p1132
aS"=VLOOKUP(A42,'[1]201510'!$A:$U,7,FALSE)"
p1133
aS"=VLOOKUP(A42,'[1]201510'!$A:$R,8,FALSE)"
p1134
aS"=-VLOOKUP(A42,'[1]201510'!$A:$Y,10,FALSE)/8"
p1135
aS'=N42+O42'
p1136
aS'=COUNTIFS(record!B:B,report!B42,record!K:K,"late1")'
p1137
aS'=COUNTIFS(record!B:B,report!B42,record!K:K,"late2")'
p1138
aS'=COUNTIFS(record!B:B,report!B42,record!K:K,"late3")'
p1139
aS'=IF(AND(E42="FTE",F42<>$F$2,G42=MAX(G:G),L42=0,M42=0,Q42<=5,R42=0,S42=0,T42=0,V42=0),"Y","N")'
p1140
aV=COUNTIFS(record!B:B,report!B42,record!K:K,"\u65f7\u5de5\u534a\u5929")/2+COUNTIFS(record!B:B,report!B42,record!K:K,"\u65f7\u5de5")
p1141
aS'=V42'
p1142
aNaS"=VLOOKUP(A42,'[1]Annual Leave'!$A:$O,15,FALSE)"
p1143
aS'=SUMIF(record!B:B,report!B42,record!M:M)'
p1144
aS'=SUMIF(record!B:B,report!B42,record!O:O)'
p1145
aS'=SUMIF(record!B:B,report!B42,record!N:N)'
p1146
aS'=SUMIF(record!B:B,report!B42,record!P:P)'
p1147
aVxing.an@mokitech.com
p1148
aV1058
p1149
aa(lp1150
VAE1380
p1151
aV\u6797\u51ac\u6885
p1152
aVBell Lin Dongmei
p1153
ag37
ag67
ag68
aL22L
aS'=G43-L43-M43'
p1154
aS'=G43-J43'
p1155
aS'=L43+M43+N43+O43+T43'
p1156
aS'=L43+M43+N43+O43+P43'
p1157
aS"=VLOOKUP(A43,'[1]201510'!$A:$S,5,FALSE)"
p1158
aS"=VLOOKUP(A43,'[1]201510'!$A:$AG,6,FALSE)"
p1159
aS"=VLOOKUP(A43,'[1]201510'!$A:$U,7,FALSE)"
p1160
aS"=VLOOKUP(A43,'[1]201510'!$A:$R,8,FALSE)"
p1161
aS"=-VLOOKUP(A43,'[1]201510'!$A:$Y,10,FALSE)/8"
p1162
aS'=N43+O43'
p1163
aS'=COUNTIFS(record!B:B,report!B43,record!K:K,"late1")'
p1164
aS'=COUNTIFS(record!B:B,report!B43,record!K:K,"late2")'
p1165
aS'=COUNTIFS(record!B:B,report!B43,record!K:K,"late3")'
p1166
aS'=IF(AND(E43="FTE",F43<>$F$2,G43=MAX(G:G),L43=0,M43=0,Q43<=5,R43=0,S43=0,T43=0,V43=0),"Y","N")'
p1167
aV=COUNTIFS(record!B:B,report!B43,record!K:K,"\u65f7\u5de5\u534a\u5929")/2+COUNTIFS(record!B:B,report!B43,record!K:K,"\u65f7\u5de5")
p1168
aS'=V43'
p1169
aNaS"=VLOOKUP(A43,'[1]Annual Leave'!$A:$O,15,FALSE)"
p1170
aS'=SUMIF(record!B:B,report!B43,record!M:M)'
p1171
aS'=SUMIF(record!B:B,report!B43,record!O:O)'
p1172
aS'=SUMIF(record!B:B,report!B43,record!N:N)'
p1173
aS'=SUMIF(record!B:B,report!B43,record!P:P)'
p1174
aS'=VLOOKUP(A43,[2]Report!$A:$AA,27,FALSE)'
p1175
aV1059
p1176
aa(lp1177
VAE1429
p1178
aV\u4e07\u7434
p1179
aVWan Qin
p1180
ag37
ag67
ag68
aL22L
aS'=G44-L44-M44'
p1181
aS'=G44-J44'
p1182
aS'=L44+M44+N44+O44+T44'
p1183
aS'=L44+M44+N44+O44+P44'
p1184
aS"=VLOOKUP(A44,'[1]201510'!$A:$S,5,FALSE)"
p1185
aS"=VLOOKUP(A44,'[1]201510'!$A:$AG,6,FALSE)"
p1186
aS"=VLOOKUP(A44,'[1]201510'!$A:$U,7,FALSE)"
p1187
aS"=VLOOKUP(A44,'[1]201510'!$A:$R,8,FALSE)"
p1188
aS"=-VLOOKUP(A44,'[1]201510'!$A:$Y,10,FALSE)/8"
p1189
aS'=N44+O44'
p1190
aS'=COUNTIFS(record!B:B,report!B44,record!K:K,"late1")'
p1191
aS'=COUNTIFS(record!B:B,report!B44,record!K:K,"late2")'
p1192
aS'=COUNTIFS(record!B:B,report!B44,record!K:K,"late3")'
p1193
aS'=IF(AND(E44="FTE",F44<>$F$2,G44=MAX(G:G),L44=0,M44=0,Q44<=5,R44=0,S44=0,T44=0,V44=0),"Y","N")'
p1194
aV=COUNTIFS(record!B:B,report!B44,record!K:K,"\u65f7\u5de5\u534a\u5929")/2+COUNTIFS(record!B:B,report!B44,record!K:K,"\u65f7\u5de5")
p1195
aS'=V44'
p1196
aNaS"=VLOOKUP(A44,'[1]Annual Leave'!$A:$O,15,FALSE)"
p1197
aS'=SUMIF(record!B:B,report!B44,record!M:M)'
p1198
aS'=SUMIF(record!B:B,report!B44,record!O:O)'
p1199
aS'=SUMIF(record!B:B,report!B44,record!N:N)'
p1200
aS'=SUMIF(record!B:B,report!B44,record!P:P)'
p1201
aS'=VLOOKUP(A44,[2]Report!$A:$AA,27,FALSE)'
p1202
aV1066
p1203
aa(lp1204
VAE1438
p1205
aV\u5b59\u9ece\u741b
p1206
aVSun Lichen
p1207
ag37
ag67
ag68
aL22L
aS'=G45-L45-M45'
p1208
aS'=G45-J45'
p1209
aS'=L45+M45+N45+O45+T45'
p1210
aS'=L45+M45+N45+O45+P45'
p1211
aS"=VLOOKUP(A45,'[1]201510'!$A:$S,5,FALSE)"
p1212
aS"=VLOOKUP(A45,'[1]201510'!$A:$AG,6,FALSE)"
p1213
aS"=VLOOKUP(A45,'[1]201510'!$A:$U,7,FALSE)"
p1214
aS"=VLOOKUP(A45,'[1]201510'!$A:$R,8,FALSE)"
p1215
aS"=-VLOOKUP(A45,'[1]201510'!$A:$Y,10,FALSE)/8"
p1216
aS'=N45+O45'
p1217
aS'=COUNTIFS(record!B:B,report!B45,record!K:K,"late1")'
p1218
aS'=COUNTIFS(record!B:B,report!B45,record!K:K,"late2")'
p1219
aS'=COUNTIFS(record!B:B,report!B45,record!K:K,"late3")'
p1220
aS'=IF(AND(E45="FTE",F45<>$F$2,G45=MAX(G:G),L45=0,M45=0,Q45<=5,R45=0,S45=0,T45=0,V45=0),"Y","N")'
p1221
aV=COUNTIFS(record!B:B,report!B45,record!K:K,"\u65f7\u5de5\u534a\u5929")/2+COUNTIFS(record!B:B,report!B45,record!K:K,"\u65f7\u5de5")
p1222
aS'=V45'
p1223
aNaS"=VLOOKUP(A45,'[1]Annual Leave'!$A:$O,15,FALSE)"
p1224
aS'=SUMIF(record!B:B,report!B45,record!M:M)'
p1225
aS'=SUMIF(record!B:B,report!B45,record!O:O)'
p1226
aS'=SUMIF(record!B:B,report!B45,record!N:N)'
p1227
aS'=SUMIF(record!B:B,report!B45,record!P:P)'
p1228
aS'=VLOOKUP(A45,[2]Report!$A:$AA,27,FALSE)'
p1229
aV1068
p1230
aa(lp1231
VAE1441
p1232
aV\u674e\u56fd\u6167
p1233
aVLi Guohui
p1234
ag37
ag67
ag68
aL22L
aS'=G46-L46-M46'
p1235
aS'=G46-J46'
p1236
aS'=L46+M46+N46+O46+T46'
p1237
aS'=L46+M46+N46+O46+P46'
p1238
aS"=VLOOKUP(A46,'[1]201510'!$A:$S,5,FALSE)"
p1239
aS"=VLOOKUP(A46,'[1]201510'!$A:$AG,6,FALSE)"
p1240
aS"=VLOOKUP(A46,'[1]201510'!$A:$U,7,FALSE)"
p1241
aS"=VLOOKUP(A46,'[1]201510'!$A:$R,8,FALSE)"
p1242
aS"=-VLOOKUP(A46,'[1]201510'!$A:$Y,10,FALSE)/8"
p1243
aS'=N46+O46'
p1244
aS'=COUNTIFS(record!B:B,report!B46,record!K:K,"late1")'
p1245
aS'=COUNTIFS(record!B:B,report!B46,record!K:K,"late2")'
p1246
aS'=COUNTIFS(record!B:B,report!B46,record!K:K,"late3")'
p1247
aS'=IF(AND(E46="FTE",F46<>$F$2,G46=MAX(G:G),L46=0,M46=0,Q46<=5,R46=0,S46=0,T46=0,V46=0),"Y","N")'
p1248
aV=COUNTIFS(record!B:B,report!B46,record!K:K,"\u65f7\u5de5\u534a\u5929")/2+COUNTIFS(record!B:B,report!B46,record!K:K,"\u65f7\u5de5")
p1249
aS'=V46'
p1250
aNaS"=VLOOKUP(A46,'[1]Annual Leave'!$A:$O,15,FALSE)"
p1251
aS'=SUMIF(record!B:B,report!B46,record!M:M)'
p1252
aS'=SUMIF(record!B:B,report!B46,record!O:O)'
p1253
aS'=SUMIF(record!B:B,report!B46,record!N:N)'
p1254
aS'=SUMIF(record!B:B,report!B46,record!P:P)'
p1255
aS'=VLOOKUP(A46,[2]Report!$A:$AA,27,FALSE)'
p1256
aV1069
p1257
aa(lp1258
VAE1445
p1259
aV\u5f20\u5149\u5b97
p1260
aVZhang Guangzong
p1261
ag37
ag67
ag68
aL22L
aS'=G47-L47-M47'
p1262
aS'=G47-J47'
p1263
aS'=L47+M47+N47+O47+T47'
p1264
aS'=L47+M47+N47+O47+P47'
p1265
aS"=VLOOKUP(A47,'[1]201510'!$A:$S,5,FALSE)"
p1266
aS"=VLOOKUP(A47,'[1]201510'!$A:$AG,6,FALSE)"
p1267
aS"=VLOOKUP(A47,'[1]201510'!$A:$U,7,FALSE)"
p1268
aS"=VLOOKUP(A47,'[1]201510'!$A:$R,8,FALSE)"
p1269
aS"=-VLOOKUP(A47,'[1]201510'!$A:$Y,10,FALSE)/8"
p1270
aS'=N47+O47'
p1271
aS'=COUNTIFS(record!B:B,report!B47,record!K:K,"late1")'
p1272
aS'=COUNTIFS(record!B:B,report!B47,record!K:K,"late2")'
p1273
aS'=COUNTIFS(record!B:B,report!B47,record!K:K,"late3")'
p1274
aS'=IF(AND(E47="FTE",F47<>$F$2,G47=MAX(G:G),L47=0,M47=0,Q47<=5,R47=0,S47=0,T47=0,V47=0),"Y","N")'
p1275
aV=COUNTIFS(record!B:B,report!B47,record!K:K,"\u65f7\u5de5\u534a\u5929")/2+COUNTIFS(record!B:B,report!B47,record!K:K,"\u65f7\u5de5")
p1276
aS'=V47'
p1277
aNaS"=VLOOKUP(A47,'[1]Annual Leave'!$A:$O,15,FALSE)"
p1278
aS'=SUMIF(record!B:B,report!B47,record!M:M)'
p1279
aS'=SUMIF(record!B:B,report!B47,record!O:O)'
p1280
aS'=SUMIF(record!B:B,report!B47,record!N:N)'
p1281
aS'=SUMIF(record!B:B,report!B47,record!P:P)'
p1282
aS'=VLOOKUP(A47,[2]Report!$A:$AA,27,FALSE)'
p1283
aV1070
p1284
aa(lp1285
VAE1467
p1286
aV\u5434\u6842\u73b2
p1287
aVWu  Guilin
p1288
ag37
ag67
ag68
aL22L
aS'=G48-L48-M48'
p1289
aS'=G48-J48'
p1290
aS'=L48+M48+N48+O48+T48'
p1291
aS'=L48+M48+N48+O48+P48'
p1292
aS"=VLOOKUP(A48,'[1]201510'!$A:$S,5,FALSE)"
p1293
aS"=VLOOKUP(A48,'[1]201510'!$A:$AG,6,FALSE)"
p1294
aS"=VLOOKUP(A48,'[1]201510'!$A:$U,7,FALSE)"
p1295
aS"=VLOOKUP(A48,'[1]201510'!$A:$R,8,FALSE)"
p1296
aS"=-VLOOKUP(A48,'[1]201510'!$A:$Y,10,FALSE)/8"
p1297
aS'=N48+O48'
p1298
aS'=COUNTIFS(record!B:B,report!B48,record!K:K,"late1")'
p1299
aS'=COUNTIFS(record!B:B,report!B48,record!K:K,"late2")'
p1300
aS'=COUNTIFS(record!B:B,report!B48,record!K:K,"late3")'
p1301
aS'=IF(AND(E48="FTE",F48<>$F$2,G48=MAX(G:G),L48=0,M48=0,Q48<=5,R48=0,S48=0,T48=0,V48=0),"Y","N")'
p1302
aV=COUNTIFS(record!B:B,report!B48,record!K:K,"\u65f7\u5de5\u534a\u5929")/2+COUNTIFS(record!B:B,report!B48,record!K:K,"\u65f7\u5de5")
p1303
aS'=V48'
p1304
aNaS"=VLOOKUP(A48,'[1]Annual Leave'!$A:$O,15,FALSE)"
p1305
aS'=SUMIF(record!B:B,report!B48,record!M:M)'
p1306
aS'=SUMIF(record!B:B,report!B48,record!O:O)'
p1307
aS'=SUMIF(record!B:B,report!B48,record!N:N)'
p1308
aS'=SUMIF(record!B:B,report!B48,record!P:P)'
p1309
aS'=VLOOKUP(A48,[2]Report!$A:$AA,27,FALSE)'
p1310
aV1071
p1311
aa(lp1312
VAE1478
p1313
aV\u79e6\u7434
p1314
aVJoy Qin Qin
p1315
ag37
ag67
ag39
aL22L
aS'=G49-L49-M49'
p1316
aS'=G49-J49'
p1317
aS'=L49+M49+N49+O49+T49'
p1318
aS'=L49+M49+N49+O49+P49'
p1319
aS"=VLOOKUP(A49,'[1]201510'!$A:$S,5,FALSE)"
p1320
aS"=VLOOKUP(A49,'[1]201510'!$A:$AG,6,FALSE)"
p1321
aS"=VLOOKUP(A49,'[1]201510'!$A:$U,7,FALSE)"
p1322
aS"=VLOOKUP(A49,'[1]201510'!$A:$R,8,FALSE)"
p1323
aS"=-VLOOKUP(A49,'[1]201510'!$A:$Y,10,FALSE)/8"
p1324
aS'=N49+O49'
p1325
aS'=COUNTIFS(record!B:B,report!B49,record!K:K,"late1")'
p1326
aS'=COUNTIFS(record!B:B,report!B49,record!K:K,"late2")'
p1327
aS'=COUNTIFS(record!B:B,report!B49,record!K:K,"late3")'
p1328
aS'=IF(AND(E49="FTE",F49<>$F$2,G49=MAX(G:G),L49=0,M49=0,Q49<=5,R49=0,S49=0,T49=0,V49=0),"Y","N")'
p1329
aV=COUNTIFS(record!B:B,report!B49,record!K:K,"\u65f7\u5de5\u534a\u5929")/2+COUNTIFS(record!B:B,report!B49,record!K:K,"\u65f7\u5de5")
p1330
aS'=V49'
p1331
aNaS"=VLOOKUP(A49,'[1]Annual Leave'!$A:$O,15,FALSE)"
p1332
aS'=SUMIF(record!B:B,report!B49,record!M:M)'
p1333
aS'=SUMIF(record!B:B,report!B49,record!O:O)'
p1334
aS'=SUMIF(record!B:B,report!B49,record!N:N)'
p1335
aS'=SUMIF(record!B:B,report!B49,record!P:P)'
p1336
aS'=VLOOKUP(A49,[2]Report!$A:$AA,27,FALSE)'
p1337
aV1072
p1338
aa(lp1339
VAE1497
p1340
aV\u5f20\u9759\u6021
p1341
aVZhang Jingyi
p1342
ag37
ag67
ag68
aL22L
aS'=G50-L50-M50'
p1343
aS'=G50-J50'
p1344
aS'=L50+M50+N50+O50+T50'
p1345
aS'=L50+M50+N50+O50+P50'
p1346
aS"=VLOOKUP(A50,'[1]201510'!$A:$S,5,FALSE)"
p1347
aS"=VLOOKUP(A50,'[1]201510'!$A:$AG,6,FALSE)"
p1348
aS"=VLOOKUP(A50,'[1]201510'!$A:$U,7,FALSE)"
p1349
aS"=VLOOKUP(A50,'[1]201510'!$A:$R,8,FALSE)"
p1350
aS"=-VLOOKUP(A50,'[1]201510'!$A:$Y,10,FALSE)/8"
p1351
aS'=N50+O50'
p1352
aS'=COUNTIFS(record!B:B,report!B50,record!K:K,"late1")'
p1353
aS'=COUNTIFS(record!B:B,report!B50,record!K:K,"late2")'
p1354
aS'=COUNTIFS(record!B:B,report!B50,record!K:K,"late3")'
p1355
aS'=IF(AND(E50="FTE",F50<>$F$2,G50=MAX(G:G),L50=0,M50=0,Q50<=5,R50=0,S50=0,T50=0,V50=0),"Y","N")'
p1356
aV=COUNTIFS(record!B:B,report!B50,record!K:K,"\u65f7\u5de5\u534a\u5929")/2+COUNTIFS(record!B:B,report!B50,record!K:K,"\u65f7\u5de5")
p1357
aS'=V50'
p1358
aNaS"=VLOOKUP(A50,'[1]Annual Leave'!$A:$O,15,FALSE)"
p1359
aS'=SUMIF(record!B:B,report!B50,record!M:M)'
p1360
aS'=SUMIF(record!B:B,report!B50,record!O:O)'
p1361
aS'=SUMIF(record!B:B,report!B50,record!N:N)'
p1362
aS'=SUMIF(record!B:B,report!B50,record!P:P)'
p1363
aS'=VLOOKUP(A50,[2]Report!$A:$AA,27,FALSE)'
p1364
aV1075
p1365
aa(lp1366
VAE1510
p1367
aV\u4e50\u838e
p1368
aVSara Yue Sha
p1369
ag37
ag67
ag68
aL22L
aS'=G51-L51-M51'
p1370
aS'=G51-J51'
p1371
aS'=L51+M51+N51+O51+T51'
p1372
aS'=L51+M51+N51+O51+P51'
p1373
aS"=VLOOKUP(A51,'[1]201510'!$A:$S,5,FALSE)"
p1374
aS"=VLOOKUP(A51,'[1]201510'!$A:$AG,6,FALSE)"
p1375
aS"=VLOOKUP(A51,'[1]201510'!$A:$U,7,FALSE)"
p1376
aS"=VLOOKUP(A51,'[1]201510'!$A:$R,8,FALSE)"
p1377
aS"=-VLOOKUP(A51,'[1]201510'!$A:$Y,10,FALSE)/8"
p1378
aS'=N51+O51'
p1379
aS'=COUNTIFS(record!B:B,report!B51,record!K:K,"late1")'
p1380
aS'=COUNTIFS(record!B:B,report!B51,record!K:K,"late2")'
p1381
aS'=COUNTIFS(record!B:B,report!B51,record!K:K,"late3")'
p1382
aS'=IF(AND(E51="FTE",F51<>$F$2,G51=MAX(G:G),L51=0,M51=0,Q51<=5,R51=0,S51=0,T51=0,V51=0),"Y","N")'
p1383
aV=COUNTIFS(record!B:B,report!B51,record!K:K,"\u65f7\u5de5\u534a\u5929")/2+COUNTIFS(record!B:B,report!B51,record!K:K,"\u65f7\u5de5")
p1384
aS'=V51'
p1385
aNaS"=VLOOKUP(A51,'[1]Annual Leave'!$A:$O,15,FALSE)"
p1386
aS'=SUMIF(record!B:B,report!B51,record!M:M)'
p1387
aS'=SUMIF(record!B:B,report!B51,record!O:O)'
p1388
aS'=SUMIF(record!B:B,report!B51,record!N:N)'
p1389
aS'=SUMIF(record!B:B,report!B51,record!P:P)'
p1390
aS'=VLOOKUP(A51,[2]Report!$A:$AA,27,FALSE)'
p1391
aV1077
p1392
aa(lp1393
VAE1516
p1394
aV\u5f20\u797a\u9f99
p1395
aVZhang Qilong
p1396
ag37
ag67
ag68
aL22L
aS'=G52-L52-M52'
p1397
aS'=G52-J52'
p1398
aS'=L52+M52+N52+O52+T52'
p1399
aS'=L52+M52+N52+O52+P52'
p1400
aS"=VLOOKUP(A52,'[1]201510'!$A:$S,5,FALSE)"
p1401
aS"=VLOOKUP(A52,'[1]201510'!$A:$AG,6,FALSE)"
p1402
aS"=VLOOKUP(A52,'[1]201510'!$A:$U,7,FALSE)"
p1403
aS"=VLOOKUP(A52,'[1]201510'!$A:$R,8,FALSE)"
p1404
aS"=-VLOOKUP(A52,'[1]201510'!$A:$Y,10,FALSE)/8"
p1405
aS'=N52+O52'
p1406
aS'=COUNTIFS(record!B:B,report!B52,record!K:K,"late1")'
p1407
aS'=COUNTIFS(record!B:B,report!B52,record!K:K,"late2")'
p1408
aS'=COUNTIFS(record!B:B,report!B52,record!K:K,"late3")'
p1409
aS'=IF(AND(E52="FTE",F52<>$F$2,G52=MAX(G:G),L52=0,M52=0,Q52<=5,R52=0,S52=0,T52=0,V52=0),"Y","N")'
p1410
aV=COUNTIFS(record!B:B,report!B52,record!K:K,"\u65f7\u5de5\u534a\u5929")/2+COUNTIFS(record!B:B,report!B52,record!K:K,"\u65f7\u5de5")
p1411
aS'=V52'
p1412
aNaS"=VLOOKUP(A52,'[1]Annual Leave'!$A:$O,15,FALSE)"
p1413
aS'=SUMIF(record!B:B,report!B52,record!M:M)'
p1414
aS'=SUMIF(record!B:B,report!B52,record!O:O)'
p1415
aS'=SUMIF(record!B:B,report!B52,record!N:N)'
p1416
aS'=SUMIF(record!B:B,report!B52,record!P:P)'
p1417
aS'=VLOOKUP(A52,[2]Report!$A:$AA,27,FALSE)'
p1418
aV1078
p1419
aa(lp1420
VAE1518
p1421
aV\u9ec4\u59dd
p1422
aVJulin Huang Shu
p1423
ag37
ag67
ag68
aL22L
aS'=G53-L53-M53'
p1424
aS'=G53-J53'
p1425
aS'=L53+M53+N53+O53+T53'
p1426
aS'=L53+M53+N53+O53+P53'
p1427
aS"=VLOOKUP(A53,'[1]201510'!$A:$S,5,FALSE)"
p1428
aS"=VLOOKUP(A53,'[1]201510'!$A:$AG,6,FALSE)"
p1429
aS"=VLOOKUP(A53,'[1]201510'!$A:$U,7,FALSE)"
p1430
aS"=VLOOKUP(A53,'[1]201510'!$A:$R,8,FALSE)"
p1431
aS"=-VLOOKUP(A53,'[1]201510'!$A:$Y,10,FALSE)/8"
p1432
aS'=N53+O53'
p1433
aS'=COUNTIFS(record!B:B,report!B53,record!K:K,"late1")'
p1434
aS'=COUNTIFS(record!B:B,report!B53,record!K:K,"late2")'
p1435
aS'=COUNTIFS(record!B:B,report!B53,record!K:K,"late3")'
p1436
aS'=IF(AND(E53="FTE",F53<>$F$2,G53=MAX(G:G),L53=0,M53=0,Q53<=5,R53=0,S53=0,T53=0,V53=0),"Y","N")'
p1437
aV=COUNTIFS(record!B:B,report!B53,record!K:K,"\u65f7\u5de5\u534a\u5929")/2+COUNTIFS(record!B:B,report!B53,record!K:K,"\u65f7\u5de5")
p1438
aS'=V53'
p1439
aNaS"=VLOOKUP(A53,'[1]Annual Leave'!$A:$O,15,FALSE)"
p1440
aS'=SUMIF(record!B:B,report!B53,record!M:M)'
p1441
aS'=SUMIF(record!B:B,report!B53,record!O:O)'
p1442
aS'=SUMIF(record!B:B,report!B53,record!N:N)'
p1443
aS'=SUMIF(record!B:B,report!B53,record!P:P)'
p1444
aS'=VLOOKUP(A53,[2]Report!$A:$AA,27,FALSE)'
p1445
aV1079
p1446
aa(lp1447
VAE1533
p1448
aV\u5362\u5955\u6c50
p1449
aVLouise Lu Yixi
p1450
ag37
ag67
ag68
aL22L
aS'=G54-L54-M54'
p1451
aS'=G54-J54'
p1452
aS'=L54+M54+N54+O54+T54'
p1453
aS'=L54+M54+N54+O54+P54'
p1454
aS"=VLOOKUP(A54,'[1]201510'!$A:$S,5,FALSE)"
p1455
aS"=VLOOKUP(A54,'[1]201510'!$A:$AG,6,FALSE)"
p1456
aS"=VLOOKUP(A54,'[1]201510'!$A:$U,7,FALSE)"
p1457
aS"=VLOOKUP(A54,'[1]201510'!$A:$R,8,FALSE)"
p1458
aS"=-VLOOKUP(A54,'[1]201510'!$A:$Y,10,FALSE)/8"
p1459
aS'=N54+O54'
p1460
aS'=COUNTIFS(record!B:B,report!B54,record!K:K,"late1")'
p1461
aS'=COUNTIFS(record!B:B,report!B54,record!K:K,"late2")'
p1462
aS'=COUNTIFS(record!B:B,report!B54,record!K:K,"late3")'
p1463
aS'=IF(AND(E54="FTE",F54<>$F$2,G54=MAX(G:G),L54=0,M54=0,Q54<=5,R54=0,S54=0,T54=0,V54=0),"Y","N")'
p1464
aV=COUNTIFS(record!B:B,report!B54,record!K:K,"\u65f7\u5de5\u534a\u5929")/2+COUNTIFS(record!B:B,report!B54,record!K:K,"\u65f7\u5de5")
p1465
aS'=V54'
p1466
aNaS"=VLOOKUP(A54,'[1]Annual Leave'!$A:$O,15,FALSE)"
p1467
aS'=SUMIF(record!B:B,report!B54,record!M:M)'
p1468
aS'=SUMIF(record!B:B,report!B54,record!O:O)'
p1469
aS'=SUMIF(record!B:B,report!B54,record!N:N)'
p1470
aS'=SUMIF(record!B:B,report!B54,record!P:P)'
p1471
aS'=VLOOKUP(A54,[2]Report!$A:$AA,27,FALSE)'
p1472
aV1080
p1473
aa(lp1474
VAE1538
p1475
aV\u6881\u5e05\u4f36
p1476
aVCelia Liang Shuailing
p1477
ag37
ag67
ag68
aL22L
aS'=G55-L55-M55'
p1478
aS'=G55-J55'
p1479
aS'=L55+M55+N55+O55+T55'
p1480
aS'=L55+M55+N55+O55+P55'
p1481
aS"=VLOOKUP(A55,'[1]201510'!$A:$S,5,FALSE)"
p1482
aS"=VLOOKUP(A55,'[1]201510'!$A:$AG,6,FALSE)"
p1483
aS"=VLOOKUP(A55,'[1]201510'!$A:$U,7,FALSE)"
p1484
aS"=VLOOKUP(A55,'[1]201510'!$A:$R,8,FALSE)"
p1485
aS"=-VLOOKUP(A55,'[1]201510'!$A:$Y,10,FALSE)/8"
p1486
aS'=N55+O55'
p1487
aS'=COUNTIFS(record!B:B,report!B55,record!K:K,"late1")'
p1488
aS'=COUNTIFS(record!B:B,report!B55,record!K:K,"late2")'
p1489
aS'=COUNTIFS(record!B:B,report!B55,record!K:K,"late3")'
p1490
aS'=IF(AND(E55="FTE",F55<>$F$2,G55=MAX(G:G),L55=0,M55=0,Q55<=5,R55=0,S55=0,T55=0,V55=0),"Y","N")'
p1491
aV=COUNTIFS(record!B:B,report!B55,record!K:K,"\u65f7\u5de5\u534a\u5929")/2+COUNTIFS(record!B:B,report!B55,record!K:K,"\u65f7\u5de5")
p1492
aS'=V55'
p1493
aNaS"=VLOOKUP(A55,'[1]Annual Leave'!$A:$O,15,FALSE)"
p1494
aS'=SUMIF(record!B:B,report!B55,record!M:M)'
p1495
aS'=SUMIF(record!B:B,report!B55,record!O:O)'
p1496
aS'=SUMIF(record!B:B,report!B55,record!N:N)'
p1497
aS'=SUMIF(record!B:B,report!B55,record!P:P)'
p1498
aS'=VLOOKUP(A55,[2]Report!$A:$AA,27,FALSE)'
p1499
aV1082
p1500
aa(lp1501
VAE1559
p1502
aV\u7f57\u4e3d
p1503
aVVera Luo Li
p1504
ag37
ag67
ag68
aL22L
aS'=G56-L56-M56'
p1505
aS'=G56-J56'
p1506
aS'=L56+M56+N56+O56+T56'
p1507
aS'=L56+M56+N56+O56+P56'
p1508
aS"=VLOOKUP(A56,'[1]201510'!$A:$S,5,FALSE)"
p1509
aS"=VLOOKUP(A56,'[1]201510'!$A:$AG,6,FALSE)"
p1510
aS"=VLOOKUP(A56,'[1]201510'!$A:$U,7,FALSE)"
p1511
aS"=VLOOKUP(A56,'[1]201510'!$A:$R,8,FALSE)"
p1512
aS"=-VLOOKUP(A56,'[1]201510'!$A:$Y,10,FALSE)/8"
p1513
aS'=N56+O56'
p1514
aS'=COUNTIFS(record!B:B,report!B56,record!K:K,"late1")'
p1515
aS'=COUNTIFS(record!B:B,report!B56,record!K:K,"late2")'
p1516
aS'=COUNTIFS(record!B:B,report!B56,record!K:K,"late3")'
p1517
aS'=IF(AND(E56="FTE",F56<>$F$2,G56=MAX(G:G),L56=0,M56=0,Q56<=5,R56=0,S56=0,T56=0,V56=0),"Y","N")'
p1518
aV=COUNTIFS(record!B:B,report!B56,record!K:K,"\u65f7\u5de5\u534a\u5929")/2+COUNTIFS(record!B:B,report!B56,record!K:K,"\u65f7\u5de5")
p1519
aS'=V56'
p1520
aNaS"=VLOOKUP(A56,'[1]Annual Leave'!$A:$O,15,FALSE)"
p1521
aS'=SUMIF(record!B:B,report!B56,record!M:M)'
p1522
aS'=SUMIF(record!B:B,report!B56,record!O:O)'
p1523
aS'=SUMIF(record!B:B,report!B56,record!N:N)'
p1524
aS'=SUMIF(record!B:B,report!B56,record!P:P)'
p1525
aS'=VLOOKUP(A56,[2]Report!$A:$AA,27,FALSE)'
p1526
aV1084
p1527
aa(lp1528
VAE1561
p1529
aV\u674e\u5f00\u6797
p1530
aVLi Kailin
p1531
ag37
ag67
ag68
aL22L
aS'=G57-L57-M57'
p1532
aS'=G57-J57'
p1533
aS'=L57+M57+N57+O57+T57'
p1534
aS'=L57+M57+N57+O57+P57'
p1535
aS"=VLOOKUP(A57,'[1]201510'!$A:$S,5,FALSE)"
p1536
aS"=VLOOKUP(A57,'[1]201510'!$A:$AG,6,FALSE)"
p1537
aS"=VLOOKUP(A57,'[1]201510'!$A:$U,7,FALSE)"
p1538
aS"=VLOOKUP(A57,'[1]201510'!$A:$R,8,FALSE)"
p1539
aS"=-VLOOKUP(A57,'[1]201510'!$A:$Y,10,FALSE)/8"
p1540
aS'=N57+O57'
p1541
aS'=COUNTIFS(record!B:B,report!B57,record!K:K,"late1")'
p1542
aS'=COUNTIFS(record!B:B,report!B57,record!K:K,"late2")'
p1543
aS'=COUNTIFS(record!B:B,report!B57,record!K:K,"late3")'
p1544
aS'=IF(AND(E57="FTE",F57<>$F$2,G57=MAX(G:G),L57=0,M57=0,Q57<=5,R57=0,S57=0,T57=0,V57=0),"Y","N")'
p1545
aV=COUNTIFS(record!B:B,report!B57,record!K:K,"\u65f7\u5de5\u534a\u5929")/2+COUNTIFS(record!B:B,report!B57,record!K:K,"\u65f7\u5de5")
p1546
aS'=V57'
p1547
aNaS"=VLOOKUP(A57,'[1]Annual Leave'!$A:$O,15,FALSE)"
p1548
aS'=SUMIF(record!B:B,report!B57,record!M:M)'
p1549
aS'=SUMIF(record!B:B,report!B57,record!O:O)'
p1550
aS'=SUMIF(record!B:B,report!B57,record!N:N)'
p1551
aS'=SUMIF(record!B:B,report!B57,record!P:P)'
p1552
aS'=VLOOKUP(A57,[2]Report!$A:$AA,27,FALSE)'
p1553
aV1085
p1554
aa(lp1555
VAE1564
p1556
aV\u9a6c\u7965
p1557
aVNeo Ma Xiang
p1558
ag37
ag67
ag68
aL22L
aS'=G58-L58-M58'
p1559
aS'=G58-J58'
p1560
aS'=L58+M58+N58+O58+T58'
p1561
aS'=L58+M58+N58+O58+P58'
p1562
aS"=VLOOKUP(A58,'[1]201510'!$A:$S,5,FALSE)"
p1563
aS"=VLOOKUP(A58,'[1]201510'!$A:$AG,6,FALSE)"
p1564
aS"=VLOOKUP(A58,'[1]201510'!$A:$U,7,FALSE)"
p1565
aS"=VLOOKUP(A58,'[1]201510'!$A:$R,8,FALSE)"
p1566
aS"=-VLOOKUP(A58,'[1]201510'!$A:$Y,10,FALSE)/8"
p1567
aS'=N58+O58'
p1568
aS'=COUNTIFS(record!B:B,report!B58,record!K:K,"late1")'
p1569
aS'=COUNTIFS(record!B:B,report!B58,record!K:K,"late2")'
p1570
aS'=COUNTIFS(record!B:B,report!B58,record!K:K,"late3")'
p1571
aS'=IF(AND(E58="FTE",F58<>$F$2,G58=MAX(G:G),L58=0,M58=0,Q58<=5,R58=0,S58=0,T58=0,V58=0),"Y","N")'
p1572
aV=COUNTIFS(record!B:B,report!B58,record!K:K,"\u65f7\u5de5\u534a\u5929")/2+COUNTIFS(record!B:B,report!B58,record!K:K,"\u65f7\u5de5")
p1573
aS'=V58'
p1574
aNaS"=VLOOKUP(A58,'[1]Annual Leave'!$A:$O,15,FALSE)"
p1575
aS'=SUMIF(record!B:B,report!B58,record!M:M)'
p1576
aS'=SUMIF(record!B:B,report!B58,record!O:O)'
p1577
aS'=SUMIF(record!B:B,report!B58,record!N:N)'
p1578
aS'=SUMIF(record!B:B,report!B58,record!P:P)'
p1579
aS'=VLOOKUP(A58,[2]Report!$A:$AA,27,FALSE)'
p1580
aV1086
p1581
aa(lp1582
VAE1573
p1583
aV\u80e1\u6770
p1584
aVJimmy Hu Jie
p1585
ag37
ag67
ag68
aL22L
aS'=G59-L59-M59'
p1586
aS'=G59-J59'
p1587
aS'=L59+M59+N59+O59+T59'
p1588
aS'=L59+M59+N59+O59+P59'
p1589
aS"=VLOOKUP(A59,'[1]201510'!$A:$S,5,FALSE)"
p1590
aS"=VLOOKUP(A59,'[1]201510'!$A:$AG,6,FALSE)"
p1591
aS"=VLOOKUP(A59,'[1]201510'!$A:$U,7,FALSE)"
p1592
aS"=VLOOKUP(A59,'[1]201510'!$A:$R,8,FALSE)"
p1593
aS"=-VLOOKUP(A59,'[1]201510'!$A:$Y,10,FALSE)/8"
p1594
aS'=N59+O59'
p1595
aS'=COUNTIFS(record!B:B,report!B59,record!K:K,"late1")'
p1596
aS'=COUNTIFS(record!B:B,report!B59,record!K:K,"late2")'
p1597
aS'=COUNTIFS(record!B:B,report!B59,record!K:K,"late3")'
p1598
aS'=IF(AND(E59="FTE",F59<>$F$2,G59=MAX(G:G),L59=0,M59=0,Q59<=5,R59=0,S59=0,T59=0,V59=0),"Y","N")'
p1599
aNaS'=V59'
p1600
aNaS"=VLOOKUP(A59,'[1]Annual Leave'!$A:$O,15,FALSE)"
p1601
aS'=SUMIF(record!B:B,report!B59,record!M:M)'
p1602
aS'=SUMIF(record!B:B,report!B59,record!O:O)'
p1603
aS'=SUMIF(record!B:B,report!B59,record!N:N)'
p1604
aS'=SUMIF(record!B:B,report!B59,record!P:P)'
p1605
aS'=VLOOKUP(A59,[2]Report!$A:$AA,27,FALSE)'
p1606
aV1088
p1607
aa(lp1608
VAE1577
p1609
aV\u5deb\u4e66\u7476
p1610
aVSue Wu Shuyao
p1611
ag37
ag67
ag68
aL22L
aS'=G60-L60-M60'
p1612
aS'=G60-J60'
p1613
aS'=L60+M60+N60+O60+T60'
p1614
aS'=L60+M60+N60+O60+P60'
p1615
aS"=VLOOKUP(A60,'[1]201510'!$A:$S,5,FALSE)"
p1616
aS"=VLOOKUP(A60,'[1]201510'!$A:$AG,6,FALSE)"
p1617
aS"=VLOOKUP(A60,'[1]201510'!$A:$U,7,FALSE)"
p1618
aS"=VLOOKUP(A60,'[1]201510'!$A:$R,8,FALSE)"
p1619
aS"=-VLOOKUP(A60,'[1]201510'!$A:$Y,10,FALSE)/8"
p1620
aS'=N60+O60'
p1621
aS'=COUNTIFS(record!B:B,report!B60,record!K:K,"late1")'
p1622
aS'=COUNTIFS(record!B:B,report!B60,record!K:K,"late2")'
p1623
aS'=COUNTIFS(record!B:B,report!B60,record!K:K,"late3")'
p1624
aS'=IF(AND(E60="FTE",F60<>$F$2,G60=MAX(G:G),L60=0,M60=0,Q60<=5,R60=0,S60=0,T60=0,V60=0),"Y","N")'
p1625
aV=COUNTIFS(record!B:B,report!B60,record!K:K,"\u65f7\u5de5\u534a\u5929")/2+COUNTIFS(record!B:B,report!B60,record!K:K,"\u65f7\u5de5")
p1626
aS'=V60'
p1627
aNaS"=VLOOKUP(A60,'[1]Annual Leave'!$A:$O,15,FALSE)"
p1628
aS'=SUMIF(record!B:B,report!B60,record!M:M)'
p1629
aS'=SUMIF(record!B:B,report!B60,record!O:O)'
p1630
aS'=SUMIF(record!B:B,report!B60,record!N:N)'
p1631
aS'=SUMIF(record!B:B,report!B60,record!P:P)'
p1632
aS'=VLOOKUP(A60,[2]Report!$A:$AA,27,FALSE)'
p1633
aV1090
p1634
aa(lp1635
VAE1588
p1636
aV\u80e1\u6377
p1637
aVHu Jie
p1638
ag37
ag96
ag68
aL22L
aS'=G61-L61-M61'
p1639
aS'=G61-J61'
p1640
aS'=L61+M61+N61+O61+T61'
p1641
aS'=L61+M61+N61+O61+P61'
p1642
aS"=VLOOKUP(A61,'[1]201510'!$A:$S,5,FALSE)"
p1643
aS"=VLOOKUP(A61,'[1]201510'!$A:$AG,6,FALSE)"
p1644
aS"=VLOOKUP(A61,'[1]201510'!$A:$U,7,FALSE)"
p1645
aS"=VLOOKUP(A61,'[1]201510'!$A:$R,8,FALSE)"
p1646
aS"=-VLOOKUP(A61,'[1]201510'!$A:$Y,10,FALSE)/8"
p1647
aS'=N61+O61'
p1648
aS'=COUNTIFS(record!B:B,report!B61,record!K:K,"late1")'
p1649
aS'=COUNTIFS(record!B:B,report!B61,record!K:K,"late2")'
p1650
aS'=COUNTIFS(record!B:B,report!B61,record!K:K,"late3")'
p1651
aS'=IF(AND(E61="FTE",F61<>$F$2,G61=MAX(G:G),L61=0,M61=0,Q61<=5,R61=0,S61=0,T61=0,V61=0),"Y","N")'
p1652
aV=COUNTIFS(record!B:B,report!B61,record!K:K,"\u65f7\u5de5\u534a\u5929")/2+COUNTIFS(record!B:B,report!B61,record!K:K,"\u65f7\u5de5")
p1653
aS'=V61'
p1654
aNaS"=VLOOKUP(A61,'[1]Annual Leave'!$A:$O,15,FALSE)"
p1655
aS'=SUMIF(record!B:B,report!B61,record!M:M)'
p1656
aS'=SUMIF(record!B:B,report!B61,record!O:O)'
p1657
aS'=SUMIF(record!B:B,report!B61,record!N:N)'
p1658
aS'=SUMIF(record!B:B,report!B61,record!P:P)'
p1659
aS'=VLOOKUP(A61,[2]Report!$A:$AA,27,FALSE)'
p1660
aV1091
p1661
aa(lp1662
VAE1605
p1663
aV\u6f06\u51ef\u8f69
p1664
aVQi Kaixuan
p1665
ag37
ag96
ag68
aL22L
aS'=G62-L62-M62'
p1666
aS'=G62-J62'
p1667
aS'=L62+M62+N62+O62+T62'
p1668
aS'=L62+M62+N62+O62+P62'
p1669
aS"=VLOOKUP(A62,'[1]201510'!$A:$S,5,FALSE)"
p1670
aS"=VLOOKUP(A62,'[1]201510'!$A:$AG,6,FALSE)"
p1671
aS"=VLOOKUP(A62,'[1]201510'!$A:$U,7,FALSE)"
p1672
aS"=VLOOKUP(A62,'[1]201510'!$A:$R,8,FALSE)"
p1673
aS"=-VLOOKUP(A62,'[1]201510'!$A:$Y,10,FALSE)/8"
p1674
aS'=N62+O62'
p1675
aS'=COUNTIFS(record!B:B,report!B62,record!K:K,"late1")'
p1676
aS'=COUNTIFS(record!B:B,report!B62,record!K:K,"late2")'
p1677
aS'=COUNTIFS(record!B:B,report!B62,record!K:K,"late3")'
p1678
aS'=IF(AND(E62="FTE",F62<>$F$2,G62=MAX(G:G),L62=0,M62=0,Q62<=5,R62=0,S62=0,T62=0,V62=0),"Y","N")'
p1679
aV=COUNTIFS(record!B:B,report!B62,record!K:K,"\u65f7\u5de5\u534a\u5929")/2+COUNTIFS(record!B:B,report!B62,record!K:K,"\u65f7\u5de5")
p1680
aS'=V62'
p1681
aNaS"=VLOOKUP(A62,'[1]Annual Leave'!$A:$O,15,FALSE)"
p1682
aS'=SUMIF(record!B:B,report!B62,record!M:M)'
p1683
aS'=SUMIF(record!B:B,report!B62,record!O:O)'
p1684
aS'=SUMIF(record!B:B,report!B62,record!N:N)'
p1685
aS'=SUMIF(record!B:B,report!B62,record!P:P)'
p1686
aS'=VLOOKUP(A62,[2]Report!$A:$AA,27,FALSE)'
p1687
aV1092
p1688
aa(lp1689
VAE1614
p1690
aV\u6c5f\u8273
p1691
aVJiang Yan
p1692
ag37
ag67
ag68
aL22L
aS'=G63-L63-M63'
p1693
aS'=G63-J63'
p1694
aS'=L63+M63+N63+O63+T63'
p1695
aS'=L63+M63+N63+O63+P63'
p1696
aS"=VLOOKUP(A63,'[1]201510'!$A:$S,5,FALSE)"
p1697
aS"=VLOOKUP(A63,'[1]201510'!$A:$AG,6,FALSE)"
p1698
aS"=VLOOKUP(A63,'[1]201510'!$A:$U,7,FALSE)"
p1699
aS"=VLOOKUP(A63,'[1]201510'!$A:$R,8,FALSE)"
p1700
aS"=-VLOOKUP(A63,'[1]201510'!$A:$Y,10,FALSE)/8"
p1701
aS'=N63+O63'
p1702
aS'=COUNTIFS(record!B:B,report!B63,record!K:K,"late1")'
p1703
aS'=COUNTIFS(record!B:B,report!B63,record!K:K,"late2")'
p1704
aS'=COUNTIFS(record!B:B,report!B63,record!K:K,"late3")'
p1705
aS'=IF(AND(E63="FTE",F63<>$F$2,G63=MAX(G:G),L63=0,M63=0,Q63<=5,R63=0,S63=0,T63=0,V63=0),"Y","N")'
p1706
aV=COUNTIFS(record!B:B,report!B63,record!K:K,"\u65f7\u5de5\u534a\u5929")/2+COUNTIFS(record!B:B,report!B63,record!K:K,"\u65f7\u5de5")
p1707
aS'=V63'
p1708
aNaS"=VLOOKUP(A63,'[1]Annual Leave'!$A:$O,15,FALSE)"
p1709
aS'=SUMIF(record!B:B,report!B63,record!M:M)'
p1710
aS'=SUMIF(record!B:B,report!B63,record!O:O)'
p1711
aS'=SUMIF(record!B:B,report!B63,record!N:N)'
p1712
aS'=SUMIF(record!B:B,report!B63,record!P:P)'
p1713
aS'=VLOOKUP(A63,[2]Report!$A:$AA,27,FALSE)'
p1714
aV1093
p1715
aa(lp1716
VAE1623
p1717
aV\u5b8b\u7687\u9a73
p1718
aVSong Huangbo
p1719
ag37
ag67
ag68
aL22L
aS'=G64-L64-M64'
p1720
aS'=G64-J64'
p1721
aS'=L64+M64+N64+O64+T64'
p1722
aS'=L64+M64+N64+O64+P64'
p1723
aS"=VLOOKUP(A64,'[1]201510'!$A:$S,5,FALSE)"
p1724
aS"=VLOOKUP(A64,'[1]201510'!$A:$AG,6,FALSE)"
p1725
aS"=VLOOKUP(A64,'[1]201510'!$A:$U,7,FALSE)"
p1726
aS"=VLOOKUP(A64,'[1]201510'!$A:$R,8,FALSE)"
p1727
aS"=-VLOOKUP(A64,'[1]201510'!$A:$Y,10,FALSE)/8"
p1728
aS'=N64+O64'
p1729
aS'=COUNTIFS(record!B:B,report!B64,record!K:K,"late1")'
p1730
aS'=COUNTIFS(record!B:B,report!B64,record!K:K,"late2")'
p1731
aS'=COUNTIFS(record!B:B,report!B64,record!K:K,"late3")'
p1732
aS'=IF(AND(E64="FTE",F64<>$F$2,G64=MAX(G:G),L64=0,M64=0,Q64<=5,R64=0,S64=0,T64=0,V64=0),"Y","N")'
p1733
aV=COUNTIFS(record!B:B,report!B64,record!K:K,"\u65f7\u5de5\u534a\u5929")/2+COUNTIFS(record!B:B,report!B64,record!K:K,"\u65f7\u5de5")
p1734
aS'=V64'
p1735
aNaS"=VLOOKUP(A64,'[1]Annual Leave'!$A:$O,15,FALSE)"
p1736
aS'=SUMIF(record!B:B,report!B64,record!M:M)'
p1737
aS'=SUMIF(record!B:B,report!B64,record!O:O)'
p1738
aS'=SUMIF(record!B:B,report!B64,record!N:N)'
p1739
aS'=SUMIF(record!B:B,report!B64,record!P:P)'
p1740
aS'=VLOOKUP(A64,[2]Report!$A:$AA,27,FALSE)'
p1741
aV1094
p1742
aa(lp1743
VAE1632
p1744
aV\u738b\u664b\u6021
p1745
aVRoxas Wang Jinyi
p1746
ag37
ag96
ag68
aL22L
aS'=G65-L65-M65'
p1747
aS'=G65-J65'
p1748
aS'=L65+M65+N65+O65+T65'
p1749
aS'=L65+M65+N65+O65+P65'
p1750
aS"=VLOOKUP(A65,'[1]201510'!$A:$S,5,FALSE)"
p1751
aS"=VLOOKUP(A65,'[1]201510'!$A:$AG,6,FALSE)"
p1752
aS"=VLOOKUP(A65,'[1]201510'!$A:$U,7,FALSE)"
p1753
aS"=VLOOKUP(A65,'[1]201510'!$A:$R,8,FALSE)"
p1754
aS"=-VLOOKUP(A65,'[1]201510'!$A:$Y,10,FALSE)/8"
p1755
aS'=N65+O65'
p1756
aS'=COUNTIFS(record!B:B,report!B65,record!K:K,"late1")'
p1757
aS'=COUNTIFS(record!B:B,report!B65,record!K:K,"late2")'
p1758
aS'=COUNTIFS(record!B:B,report!B65,record!K:K,"late3")'
p1759
aS'=IF(AND(E65="FTE",F65<>$F$2,G65=MAX(G:G),L65=0,M65=0,Q65<=5,R65=0,S65=0,T65=0,V65=0),"Y","N")'
p1760
aV=COUNTIFS(record!B:B,report!B65,record!K:K,"\u65f7\u5de5\u534a\u5929")/2+COUNTIFS(record!B:B,report!B65,record!K:K,"\u65f7\u5de5")
p1761
aS'=V65'
p1762
aNaS"=VLOOKUP(A65,'[1]Annual Leave'!$A:$O,15,FALSE)"
p1763
aS'=SUMIF(record!B:B,report!B65,record!M:M)'
p1764
aS'=SUMIF(record!B:B,report!B65,record!O:O)'
p1765
aS'=SUMIF(record!B:B,report!B65,record!N:N)'
p1766
aS'=SUMIF(record!B:B,report!B65,record!P:P)'
p1767
aS'=VLOOKUP(A65,[2]Report!$A:$AA,27,FALSE)'
p1768
aV1096
p1769
aa(lp1770
VAE1641
p1771
aV\u738b\u9759
p1772
aVSience Wang Jing
p1773
ag37
ag96
ag68
aL22L
aS'=G66-L66-M66'
p1774
aS'=G66-J66'
p1775
aS'=L66+M66+N66+O66+T66'
p1776
aS'=L66+M66+N66+O66+P66'
p1777
aS"=VLOOKUP(A66,'[1]201510'!$A:$S,5,FALSE)"
p1778
aS"=VLOOKUP(A66,'[1]201510'!$A:$AG,6,FALSE)"
p1779
aS"=VLOOKUP(A66,'[1]201510'!$A:$U,7,FALSE)"
p1780
aS"=VLOOKUP(A66,'[1]201510'!$A:$R,8,FALSE)"
p1781
aS"=-VLOOKUP(A66,'[1]201510'!$A:$Y,10,FALSE)/8"
p1782
aS'=N66+O66'
p1783
aS'=COUNTIFS(record!B:B,report!B66,record!K:K,"late1")'
p1784
aS'=COUNTIFS(record!B:B,report!B66,record!K:K,"late2")'
p1785
aS'=COUNTIFS(record!B:B,report!B66,record!K:K,"late3")'
p1786
aS'=IF(AND(E66="FTE",F66<>$F$2,G66=MAX(G:G),L66=0,M66=0,Q66<=5,R66=0,S66=0,T66=0,V66=0),"Y","N")'
p1787
aV=COUNTIFS(record!B:B,report!B66,record!K:K,"\u65f7\u5de5\u534a\u5929")/2+COUNTIFS(record!B:B,report!B66,record!K:K,"\u65f7\u5de5")
p1788
aS'=V66'
p1789
aNaS"=VLOOKUP(A66,'[1]Annual Leave'!$A:$O,15,FALSE)"
p1790
aS'=SUMIF(record!B:B,report!B66,record!M:M)'
p1791
aS'=SUMIF(record!B:B,report!B66,record!O:O)'
p1792
aS'=SUMIF(record!B:B,report!B66,record!N:N)'
p1793
aS'=SUMIF(record!B:B,report!B66,record!P:P)'
p1794
aS'=VLOOKUP(A66,[2]Report!$A:$AA,27,FALSE)'
p1795
aV1098
p1796
aa(lp1797
VAE1642
p1798
aV\u6768\u94a2
p1799
aVYang Gang
p1800
ag37
ag96
ag68
aL22L
aS'=G67-L67-M67'
p1801
aS'=G67-J67'
p1802
aS'=L67+M67+N67+O67+T67'
p1803
aS'=L67+M67+N67+O67+P67'
p1804
aS"=VLOOKUP(A67,'[1]201510'!$A:$S,5,FALSE)"
p1805
aS"=VLOOKUP(A67,'[1]201510'!$A:$AG,6,FALSE)"
p1806
aS"=VLOOKUP(A67,'[1]201510'!$A:$U,7,FALSE)"
p1807
aS"=VLOOKUP(A67,'[1]201510'!$A:$R,8,FALSE)"
p1808
aS"=-VLOOKUP(A67,'[1]201510'!$A:$Y,10,FALSE)/8"
p1809
aS'=N67+O67'
p1810
aS'=COUNTIFS(record!B:B,report!B67,record!K:K,"late1")'
p1811
aS'=COUNTIFS(record!B:B,report!B67,record!K:K,"late2")'
p1812
aS'=COUNTIFS(record!B:B,report!B67,record!K:K,"late3")'
p1813
aS'=IF(AND(E67="FTE",F67<>$F$2,G67=MAX(G:G),L67=0,M67=0,Q67<=5,R67=0,S67=0,T67=0,V67=0),"Y","N")'
p1814
aV=COUNTIFS(record!B:B,report!B67,record!K:K,"\u65f7\u5de5\u534a\u5929")/2+COUNTIFS(record!B:B,report!B67,record!K:K,"\u65f7\u5de5")
p1815
aS'=V67'
p1816
aNaS"=VLOOKUP(A67,'[1]Annual Leave'!$A:$O,15,FALSE)"
p1817
aS'=SUMIF(record!B:B,report!B67,record!M:M)'
p1818
aS'=SUMIF(record!B:B,report!B67,record!O:O)'
p1819
aS'=SUMIF(record!B:B,report!B67,record!N:N)'
p1820
aS'=SUMIF(record!B:B,report!B67,record!P:P)'
p1821
aS'=VLOOKUP(A67,[2]Report!$A:$AA,27,FALSE)'
p1822
aV1099
p1823
aa(lp1824
VAE1644
p1825
aV\u8c2d\u5bff\u7709
p1826
aVApiter Tan Shoumei
p1827
ag37
ag96
ag68
aL22L
aS'=G68-L68-M68'
p1828
aS'=G68-J68'
p1829
aS'=L68+M68+N68+O68+T68'
p1830
aS'=L68+M68+N68+O68+P68'
p1831
aS"=VLOOKUP(A68,'[1]201510'!$A:$S,5,FALSE)"
p1832
aS"=VLOOKUP(A68,'[1]201510'!$A:$AG,6,FALSE)"
p1833
aS"=VLOOKUP(A68,'[1]201510'!$A:$U,7,FALSE)"
p1834
aS"=VLOOKUP(A68,'[1]201510'!$A:$R,8,FALSE)"
p1835
aS"=-VLOOKUP(A68,'[1]201510'!$A:$Y,10,FALSE)/8"
p1836
aS'=N68+O68'
p1837
aS'=COUNTIFS(record!B:B,report!B68,record!K:K,"late1")'
p1838
aS'=COUNTIFS(record!B:B,report!B68,record!K:K,"late2")'
p1839
aS'=COUNTIFS(record!B:B,report!B68,record!K:K,"late3")'
p1840
aS'=IF(AND(E68="FTE",F68<>$F$2,G68=MAX(G:G),L68=0,M68=0,Q68<=5,R68=0,S68=0,T68=0,V68=0),"Y","N")'
p1841
aV=COUNTIFS(record!B:B,report!B68,record!K:K,"\u65f7\u5de5\u534a\u5929")/2+COUNTIFS(record!B:B,report!B68,record!K:K,"\u65f7\u5de5")
p1842
aS'=V68'
p1843
aNaS"=VLOOKUP(A68,'[1]Annual Leave'!$A:$O,15,FALSE)"
p1844
aS'=SUMIF(record!B:B,report!B68,record!M:M)'
p1845
aS'=SUMIF(record!B:B,report!B68,record!O:O)'
p1846
aS'=SUMIF(record!B:B,report!B68,record!N:N)'
p1847
aS'=SUMIF(record!B:B,report!B68,record!P:P)'
p1848
aS'=VLOOKUP(A68,[2]Report!$A:$AA,27,FALSE)'
p1849
aV1100
p1850
aa(lp1851
VAE1655
p1852
aV\u5218\u56fd\u8389
p1853
aVLily Liu Guoli
p1854
ag37
ag67
ag68
aL22L
aS'=G69-L69-M69'
p1855
aS'=G69-J69'
p1856
aS'=L69+M69+N69+O69+T69'
p1857
aS'=L69+M69+N69+O69+P69'
p1858
aS"=VLOOKUP(A69,'[1]201510'!$A:$S,5,FALSE)"
p1859
aS"=VLOOKUP(A69,'[1]201510'!$A:$AG,6,FALSE)"
p1860
aS"=VLOOKUP(A69,'[1]201510'!$A:$U,7,FALSE)"
p1861
aS"=VLOOKUP(A69,'[1]201510'!$A:$R,8,FALSE)"
p1862
aS"=-VLOOKUP(A69,'[1]201510'!$A:$Y,10,FALSE)/8"
p1863
aS'=N69+O69'
p1864
aS'=COUNTIFS(record!B:B,report!B69,record!K:K,"late1")'
p1865
aS'=COUNTIFS(record!B:B,report!B69,record!K:K,"late2")'
p1866
aS'=COUNTIFS(record!B:B,report!B69,record!K:K,"late3")'
p1867
aS'=IF(AND(E69="FTE",F69<>$F$2,G69=MAX(G:G),L69=0,M69=0,Q69<=5,R69=0,S69=0,T69=0,V69=0),"Y","N")'
p1868
aV=COUNTIFS(record!B:B,report!B69,record!K:K,"\u65f7\u5de5\u534a\u5929")/2+COUNTIFS(record!B:B,report!B69,record!K:K,"\u65f7\u5de5")
p1869
aS'=V69'
p1870
aNaS"=VLOOKUP(A69,'[1]Annual Leave'!$A:$O,15,FALSE)"
p1871
aS'=SUMIF(record!B:B,report!B69,record!M:M)'
p1872
aS'=SUMIF(record!B:B,report!B69,record!O:O)'
p1873
aS'=SUMIF(record!B:B,report!B69,record!N:N)'
p1874
aS'=SUMIF(record!B:B,report!B69,record!P:P)'
p1875
aS'=VLOOKUP(A69,[2]Report!$A:$AA,27,FALSE)'
p1876
aV1102
p1877
aa(lp1878
VAE1662
p1879
aV\u5f20\u6b8a\u66fc
p1880
aVZhang Shuman
p1881
ag37
ag96
ag68
aL22L
aS'=G70-L70-M70'
p1882
aS'=G70-J70'
p1883
aS'=L70+M70+N70+O70+T70'
p1884
aS'=L70+M70+N70+O70+P70'
p1885
aS"=VLOOKUP(A70,'[1]201510'!$A:$S,5,FALSE)"
p1886
aS"=VLOOKUP(A70,'[1]201510'!$A:$AG,6,FALSE)"
p1887
aS"=VLOOKUP(A70,'[1]201510'!$A:$U,7,FALSE)"
p1888
aS"=VLOOKUP(A70,'[1]201510'!$A:$R,8,FALSE)"
p1889
aS"=-VLOOKUP(A70,'[1]201510'!$A:$Y,10,FALSE)/8"
p1890
aS'=N70+O70'
p1891
aS'=COUNTIFS(record!B:B,report!B70,record!K:K,"late1")'
p1892
aS'=COUNTIFS(record!B:B,report!B70,record!K:K,"late2")'
p1893
aS'=COUNTIFS(record!B:B,report!B70,record!K:K,"late3")'
p1894
aS'=IF(AND(E70="FTE",F70<>$F$2,G70=MAX(G:G),L70=0,M70=0,Q70<=5,R70=0,S70=0,T70=0,V70=0),"Y","N")'
p1895
aV=COUNTIFS(record!B:B,report!B70,record!K:K,"\u65f7\u5de5\u534a\u5929")/2+COUNTIFS(record!B:B,report!B70,record!K:K,"\u65f7\u5de5")
p1896
aS'=V70'
p1897
aNaS"=VLOOKUP(A70,'[1]Annual Leave'!$A:$O,15,FALSE)"
p1898
aS'=SUMIF(record!B:B,report!B70,record!M:M)'
p1899
aS'=SUMIF(record!B:B,report!B70,record!O:O)'
p1900
aS'=SUMIF(record!B:B,report!B70,record!N:N)'
p1901
aS'=SUMIF(record!B:B,report!B70,record!P:P)'
p1902
aS'=VLOOKUP(A70,[2]Report!$A:$AA,27,FALSE)'
p1903
aV1103
p1904
aa(lp1905
VAE1663
p1906
aV\u5b8b\u6587\u7426
p1907
aVVicky Song Wenqi
p1908
ag37
ag96
ag68
aL22L
aS'=G75-L75-M75'
p1909
aS'=G71-J71'
p1910
aS'=L71+M71+N71+O71+T71'
p1911
aS'=L71+M71+N71+O71+P71'
p1912
aS"=VLOOKUP(A71,'[1]201510'!$A:$S,5,FALSE)"
p1913
aS"=VLOOKUP(A71,'[1]201510'!$A:$AG,6,FALSE)"
p1914
aS"=VLOOKUP(A71,'[1]201510'!$A:$U,7,FALSE)"
p1915
aS"=VLOOKUP(A71,'[1]201510'!$A:$R,8,FALSE)"
p1916
aS"=-VLOOKUP(A71,'[1]201510'!$A:$Y,10,FALSE)/8"
p1917
aS'=N71+O71'
p1918
aS'=COUNTIFS(record!B:B,report!B71,record!K:K,"late1")'
p1919
aS'=COUNTIFS(record!B:B,report!B71,record!K:K,"late2")'
p1920
aS'=COUNTIFS(record!B:B,report!B71,record!K:K,"late3")'
p1921
aS'=IF(AND(E71="FTE",F71<>$F$2,G71=MAX(G:G),L71=0,M71=0,Q71<=5,R71=0,S71=0,T71=0,V71=0),"Y","N")'
p1922
aV=COUNTIFS(record!B:B,report!B71,record!K:K,"\u65f7\u5de5\u534a\u5929")/2+COUNTIFS(record!B:B,report!B71,record!K:K,"\u65f7\u5de5")
p1923
aS'=V71'
p1924
aNaS"=VLOOKUP(A71,'[1]Annual Leave'!$A:$O,15,FALSE)"
p1925
aS'=SUMIF(record!B:B,report!B71,record!M:M)'
p1926
aS'=SUMIF(record!B:B,report!B71,record!O:O)'
p1927
aS'=SUMIF(record!B:B,report!B71,record!N:N)'
p1928
aS'=SUMIF(record!B:B,report!B71,record!P:P)'
p1929
aS'=VLOOKUP(A71,[2]Report!$A:$AA,27,FALSE)'
p1930
aV1104
p1931
aa(lp1932
VAE1666
p1933
aV\u7f57\u5929\u5f3a
p1934
aVLuo Tianqiang
p1935
ag37
ag96
ag68
aL22L
aS'=G72-L72-M72'
p1936
aS'=G72-J72'
p1937
aS'=L72+M72+N72+O72+T72'
p1938
aS'=L72+M72+N72+O72+P72'
p1939
aS"=VLOOKUP(A72,'[1]201510'!$A:$S,5,FALSE)"
p1940
aS"=VLOOKUP(A72,'[1]201510'!$A:$AG,6,FALSE)"
p1941
aS"=VLOOKUP(A72,'[1]201510'!$A:$U,7,FALSE)"
p1942
aS"=VLOOKUP(A72,'[1]201510'!$A:$R,8,FALSE)"
p1943
aS"=-VLOOKUP(A72,'[1]201510'!$A:$Y,10,FALSE)/8"
p1944
aS'=N72+O72'
p1945
aS'=COUNTIFS(record!B:B,report!B72,record!K:K,"late1")'
p1946
aS'=COUNTIFS(record!B:B,report!B72,record!K:K,"late2")'
p1947
aS'=COUNTIFS(record!B:B,report!B72,record!K:K,"late3")'
p1948
aS'=IF(AND(E72="FTE",F72<>$F$2,G72=MAX(G:G),L72=0,M72=0,Q72<=5,R72=0,S72=0,T72=0,V72=0),"Y","N")'
p1949
aV=COUNTIFS(record!B:B,report!B72,record!K:K,"\u65f7\u5de5\u534a\u5929")/2+COUNTIFS(record!B:B,report!B72,record!K:K,"\u65f7\u5de5")
p1950
aS'=V72'
p1951
aNaS"=VLOOKUP(A72,'[1]Annual Leave'!$A:$O,15,FALSE)"
p1952
aS'=SUMIF(record!B:B,report!B72,record!M:M)'
p1953
aS'=SUMIF(record!B:B,report!B72,record!O:O)'
p1954
aS'=SUMIF(record!B:B,report!B72,record!N:N)'
p1955
aS'=SUMIF(record!B:B,report!B72,record!P:P)'
p1956
aS'=VLOOKUP(A72,[2]Report!$A:$AA,27,FALSE)'
p1957
aV1105
p1958
aa(lp1959
VAE1674
p1960
aV\u5f20\u9e4f
p1961
aVBen Zhang Peng
p1962
ag37
ag96
ag68
aL22L
aS'=G73-L73-M73'
p1963
aS'=G73-J73'
p1964
aS'=L73+M73+N73+O73+T73'
p1965
aS'=L73+M73+N73+O73+P73'
p1966
aS"=VLOOKUP(A73,'[1]201510'!$A:$S,5,FALSE)"
p1967
aS"=VLOOKUP(A73,'[1]201510'!$A:$AG,6,FALSE)"
p1968
aS"=VLOOKUP(A73,'[1]201510'!$A:$U,7,FALSE)"
p1969
aS"=VLOOKUP(A73,'[1]201510'!$A:$R,8,FALSE)"
p1970
aS"=-VLOOKUP(A73,'[1]201510'!$A:$Y,10,FALSE)/8"
p1971
aS'=N73+O73'
p1972
aS'=COUNTIFS(record!B:B,report!B73,record!K:K,"late1")'
p1973
aS'=COUNTIFS(record!B:B,report!B73,record!K:K,"late2")'
p1974
aS'=COUNTIFS(record!B:B,report!B73,record!K:K,"late3")'
p1975
aS'=IF(AND(E73="FTE",F73<>$F$2,G73=MAX(G:G),L73=0,M73=0,Q73<=5,R73=0,S73=0,T73=0,V73=0),"Y","N")'
p1976
aV=COUNTIFS(record!B:B,report!B73,record!K:K,"\u65f7\u5de5\u534a\u5929")/2+COUNTIFS(record!B:B,report!B73,record!K:K,"\u65f7\u5de5")
p1977
aS'=V73'
p1978
aNaS"=VLOOKUP(A73,'[1]Annual Leave'!$A:$O,15,FALSE)"
p1979
aS'=SUMIF(record!B:B,report!B73,record!M:M)'
p1980
aS'=SUMIF(record!B:B,report!B73,record!O:O)'
p1981
aS'=SUMIF(record!B:B,report!B73,record!N:N)'
p1982
aS'=SUMIF(record!B:B,report!B73,record!P:P)'
p1983
aS'=VLOOKUP(A73,[2]Report!$A:$AA,27,FALSE)'
p1984
aV1107
p1985
aa(lp1986
VAE1677
p1987
aV\u9093\u627f
p1988
aVNeo Deng Cheng
p1989
ag37
ag96
ag68
aL22L
aS'=G74-L74-M74'
p1990
aS'=G74-J74'
p1991
aS'=L74+M74+N74+O74+T74'
p1992
aS'=L74+M74+N74+O74+P74'
p1993
aS"=VLOOKUP(A74,'[1]201510'!$A:$S,5,FALSE)"
p1994
aS"=VLOOKUP(A74,'[1]201510'!$A:$AG,6,FALSE)"
p1995
aS"=VLOOKUP(A74,'[1]201510'!$A:$U,7,FALSE)"
p1996
aS"=VLOOKUP(A74,'[1]201510'!$A:$R,8,FALSE)"
p1997
aS"=-VLOOKUP(A74,'[1]201510'!$A:$Y,10,FALSE)/8"
p1998
aS'=N74+O74'
p1999
aS'=COUNTIFS(record!B:B,report!B74,record!K:K,"late1")'
p2000
aS'=COUNTIFS(record!B:B,report!B74,record!K:K,"late2")'
p2001
aS'=COUNTIFS(record!B:B,report!B74,record!K:K,"late3")'
p2002
aS'=IF(AND(E74="FTE",F74<>$F$2,G74=MAX(G:G),L74=0,M74=0,Q74<=5,R74=0,S74=0,T74=0,V74=0),"Y","N")'
p2003
aV=COUNTIFS(record!B:B,report!B74,record!K:K,"\u65f7\u5de5\u534a\u5929")/2+COUNTIFS(record!B:B,report!B74,record!K:K,"\u65f7\u5de5")
p2004
aS'=V74'
p2005
aNaS"=VLOOKUP(A74,'[1]Annual Leave'!$A:$O,15,FALSE)"
p2006
aS'=SUMIF(record!B:B,report!B74,record!M:M)'
p2007
aS'=SUMIF(record!B:B,report!B74,record!O:O)'
p2008
aS'=SUMIF(record!B:B,report!B74,record!N:N)'
p2009
aS'=SUMIF(record!B:B,report!B74,record!P:P)'
p2010
aS'=VLOOKUP(A74,[2]Report!$A:$AA,27,FALSE)'
p2011
aV1108
p2012
aa(lp2013
VAE1678
p2014
aV\u91d1\u68a6\u5a1f
p2015
aVJessie Jin Mengjuan
p2016
ag37
ag96
ag97
aL22L
aS'=G75-L75-M75'
p2017
aS'=G75-J75'
p2018
aS'=L75+M75+N75+O75+T75'
p2019
aS'=L75+M75+N75+O75+P75'
p2020
aS"=VLOOKUP(A75,'[1]201510'!$A:$S,5,FALSE)"
p2021
aS"=VLOOKUP(A75,'[1]201510'!$A:$AG,6,FALSE)"
p2022
aS"=VLOOKUP(A75,'[1]201510'!$A:$U,7,FALSE)"
p2023
aS"=VLOOKUP(A75,'[1]201510'!$A:$R,8,FALSE)"
p2024
aS"=-VLOOKUP(A75,'[1]201510'!$A:$Y,10,FALSE)/8"
p2025
aS'=N75+O75'
p2026
aS'=COUNTIFS(record!B:B,report!B75,record!K:K,"late1")'
p2027
aS'=COUNTIFS(record!B:B,report!B75,record!K:K,"late2")'
p2028
aS'=COUNTIFS(record!B:B,report!B75,record!K:K,"late3")'
p2029
aS'=IF(AND(E75="FTE",F75<>$F$2,G75=MAX(G:G),L75=0,M75=0,Q75<=5,R75=0,S75=0,T75=0,V75=0),"Y","N")'
p2030
aV=COUNTIFS(record!B:B,report!B75,record!K:K,"\u65f7\u5de5\u534a\u5929")/2+COUNTIFS(record!B:B,report!B75,record!K:K,"\u65f7\u5de5")
p2031
aS'=V75'
p2032
aNaS"=VLOOKUP(A75,'[1]Annual Leave'!$A:$O,15,FALSE)"
p2033
aS'=SUMIF(record!B:B,report!B75,record!M:M)'
p2034
aS'=SUMIF(record!B:B,report!B75,record!O:O)'
p2035
aS'=SUMIF(record!B:B,report!B75,record!N:N)'
p2036
aS'=SUMIF(record!B:B,report!B75,record!P:P)'
p2037
aS'=VLOOKUP(A75,[2]Report!$A:$AA,27,FALSE)'
p2038
aV1109
p2039
aa(lp2040
VAE1705
p2041
aV\u5e9e\u541b
p2042
aVPeter Pang Jun
p2043
ag37
ag96
ag68
aL22L
aS'=G76-L76-M76'
p2044
aS'=G76-J76'
p2045
aS'=L76+M76+N76+O76+T76'
p2046
aS'=L76+M76+N76+O76+P76'
p2047
aS"=VLOOKUP(A76,'[1]201510'!$A:$S,5,FALSE)"
p2048
aS"=VLOOKUP(A76,'[1]201510'!$A:$AG,6,FALSE)"
p2049
aS"=VLOOKUP(A76,'[1]201510'!$A:$U,7,FALSE)"
p2050
aS"=VLOOKUP(A76,'[1]201510'!$A:$R,8,FALSE)"
p2051
aS"=-VLOOKUP(A76,'[1]201510'!$A:$Y,10,FALSE)/8"
p2052
aS'=N76+O76'
p2053
aS'=COUNTIFS(record!B:B,report!B76,record!K:K,"late1")'
p2054
aS'=COUNTIFS(record!B:B,report!B76,record!K:K,"late2")'
p2055
aS'=COUNTIFS(record!B:B,report!B76,record!K:K,"late3")'
p2056
aS'=IF(AND(E76="FTE",F76<>$F$2,G76=MAX(G:G),L76=0,M76=0,Q76<=5,R76=0,S76=0,T76=0,V76=0),"Y","N")'
p2057
aV=COUNTIFS(record!B:B,report!B76,record!K:K,"\u65f7\u5de5\u534a\u5929")/2+COUNTIFS(record!B:B,report!B76,record!K:K,"\u65f7\u5de5")
p2058
aS'=V76'
p2059
aNaS"=VLOOKUP(A76,'[1]Annual Leave'!$A:$O,15,FALSE)"
p2060
aS'=SUMIF(record!B:B,report!B76,record!M:M)'
p2061
aS'=SUMIF(record!B:B,report!B76,record!O:O)'
p2062
aS'=SUMIF(record!B:B,report!B76,record!N:N)'
p2063
aS'=SUMIF(record!B:B,report!B76,record!P:P)'
p2064
aS'=VLOOKUP(A76,[2]Report!$A:$AA,27,FALSE)'
p2065
aV1114
p2066
aa(lp2067
VAE1707
p2068
aV\u767d\u96ea
p2069
aVBai Xue
p2070
ag37
ag96
ag68
aL22L
aS'=G77-L77-M77'
p2071
aS'=G77-J77'
p2072
aS'=L77+M77+N77+O77+T77'
p2073
aS'=L77+M77+N77+O77+P77'
p2074
aS"=VLOOKUP(A77,'[1]201510'!$A:$S,5,FALSE)"
p2075
aS"=VLOOKUP(A77,'[1]201510'!$A:$AG,6,FALSE)"
p2076
aS"=VLOOKUP(A77,'[1]201510'!$A:$U,7,FALSE)"
p2077
aS"=VLOOKUP(A77,'[1]201510'!$A:$R,8,FALSE)"
p2078
aS"=-VLOOKUP(A77,'[1]201510'!$A:$Y,10,FALSE)/8"
p2079
aS'=N77+O77'
p2080
aS'=COUNTIFS(record!B:B,report!B77,record!K:K,"late1")'
p2081
aS'=COUNTIFS(record!B:B,report!B77,record!K:K,"late2")'
p2082
aS'=COUNTIFS(record!B:B,report!B77,record!K:K,"late3")'
p2083
aS'=IF(AND(E77="FTE",F77<>$F$2,G77=MAX(G:G),L77=0,M77=0,Q77<=5,R77=0,S77=0,T77=0,V77=0),"Y","N")'
p2084
aV=COUNTIFS(record!B:B,report!B77,record!K:K,"\u65f7\u5de5\u534a\u5929")/2+COUNTIFS(record!B:B,report!B77,record!K:K,"\u65f7\u5de5")
p2085
aS'=V77'
p2086
aNaS"=VLOOKUP(A77,'[1]Annual Leave'!$A:$O,15,FALSE)"
p2087
aS'=SUMIF(record!B:B,report!B77,record!M:M)'
p2088
aS'=SUMIF(record!B:B,report!B77,record!O:O)'
p2089
aS'=SUMIF(record!B:B,report!B77,record!N:N)'
p2090
aS'=SUMIF(record!B:B,report!B77,record!P:P)'
p2091
aS'=VLOOKUP(A77,[2]Report!$A:$AA,27,FALSE)'
p2092
aV1115
p2093
aa(lp2094
VAE1708
p2095
aV\u738b\u4e3d\u541b
p2096
aVWang Lijun
p2097
ag37
ag96
ag68
aL22L
aS'=G78-L78-M78'
p2098
aS'=G78-J78'
p2099
aS'=L78+M78+N78+O78+T78'
p2100
aS'=L78+M78+N78+O78+P78'
p2101
aS"=VLOOKUP(A78,'[1]201510'!$A:$S,5,FALSE)"
p2102
aS"=VLOOKUP(A78,'[1]201510'!$A:$AG,6,FALSE)"
p2103
aS"=VLOOKUP(A78,'[1]201510'!$A:$U,7,FALSE)"
p2104
aS"=VLOOKUP(A78,'[1]201510'!$A:$R,8,FALSE)"
p2105
aS"=-VLOOKUP(A78,'[1]201510'!$A:$Y,10,FALSE)/8"
p2106
aS'=N78+O78'
p2107
aS'=COUNTIFS(record!B:B,report!B78,record!K:K,"late1")'
p2108
aS'=COUNTIFS(record!B:B,report!B78,record!K:K,"late2")'
p2109
aS'=COUNTIFS(record!B:B,report!B78,record!K:K,"late3")'
p2110
aS'=IF(AND(E78="FTE",F78<>$F$2,G78=MAX(G:G),L78=0,M78=0,Q78<=5,R78=0,S78=0,T78=0,V78=0),"Y","N")'
p2111
aV=COUNTIFS(record!B:B,report!B78,record!K:K,"\u65f7\u5de5\u534a\u5929")/2+COUNTIFS(record!B:B,report!B78,record!K:K,"\u65f7\u5de5")
p2112
aS'=V78'
p2113
aNaS"=VLOOKUP(A78,'[1]Annual Leave'!$A:$O,15,FALSE)"
p2114
aS'=SUMIF(record!B:B,report!B78,record!M:M)'
p2115
aS'=SUMIF(record!B:B,report!B78,record!O:O)'
p2116
aS'=SUMIF(record!B:B,report!B78,record!N:N)'
p2117
aS'=SUMIF(record!B:B,report!B78,record!P:P)'
p2118
aS'=VLOOKUP(A78,[2]Report!$A:$AA,27,FALSE)'
p2119
aV1116
p2120
aa(lp2121
VAE1709
p2122
aV\u738b\u5029
p2123
aVWang Qian
p2124
ag37
ag96
ag68
aL22L
aS'=G79-L79-M79'
p2125
aS'=G79-J79'
p2126
aS'=L79+M79+N79+O79+T79'
p2127
aS'=L79+M79+N79+O79+P79'
p2128
aS"=VLOOKUP(A79,'[1]201510'!$A:$S,5,FALSE)"
p2129
aS"=VLOOKUP(A79,'[1]201510'!$A:$AG,6,FALSE)"
p2130
aS"=VLOOKUP(A79,'[1]201510'!$A:$U,7,FALSE)"
p2131
aS"=VLOOKUP(A79,'[1]201510'!$A:$R,8,FALSE)"
p2132
aS"=-VLOOKUP(A79,'[1]201510'!$A:$Y,10,FALSE)/8"
p2133
aS'=N79+O79'
p2134
aS'=COUNTIFS(record!B:B,report!B79,record!K:K,"late1")'
p2135
aS'=COUNTIFS(record!B:B,report!B79,record!K:K,"late2")'
p2136
aS'=COUNTIFS(record!B:B,report!B79,record!K:K,"late3")'
p2137
aS'=IF(AND(E79="FTE",F79<>$F$2,G79=MAX(G:G),L79=0,M79=0,Q79<=5,R79=0,S79=0,T79=0,V79=0),"Y","N")'
p2138
aV=COUNTIFS(record!B:B,report!B79,record!K:K,"\u65f7\u5de5\u534a\u5929")/2+COUNTIFS(record!B:B,report!B79,record!K:K,"\u65f7\u5de5")
p2139
aS'=V79'
p2140
aNaS"=VLOOKUP(A79,'[1]Annual Leave'!$A:$O,15,FALSE)"
p2141
aS'=SUMIF(record!B:B,report!B79,record!M:M)'
p2142
aS'=SUMIF(record!B:B,report!B79,record!O:O)'
p2143
aS'=SUMIF(record!B:B,report!B79,record!N:N)'
p2144
aS'=SUMIF(record!B:B,report!B79,record!P:P)'
p2145
aS'=VLOOKUP(A79,[2]Report!$A:$AA,27,FALSE)'
p2146
aV1117
p2147
aa(lp2148
VAE1710
p2149
aV\u9648\u73a5
p2150
aVChen Yue
p2151
ag37
ag96
ag68
aL22L
aS'=G80-L80-M80'
p2152
aS'=G80-J80'
p2153
aS'=L80+M80+N80+O80+T80'
p2154
aS'=L80+M80+N80+O80+P80'
p2155
aS"=VLOOKUP(A80,'[1]201510'!$A:$S,5,FALSE)"
p2156
aS"=VLOOKUP(A80,'[1]201510'!$A:$AG,6,FALSE)"
p2157
aS"=VLOOKUP(A80,'[1]201510'!$A:$U,7,FALSE)"
p2158
aS"=VLOOKUP(A80,'[1]201510'!$A:$R,8,FALSE)"
p2159
aS"=-VLOOKUP(A80,'[1]201510'!$A:$Y,10,FALSE)/8"
p2160
aS'=N80+O80'
p2161
aS'=COUNTIFS(record!B:B,report!B80,record!K:K,"late1")'
p2162
aS'=COUNTIFS(record!B:B,report!B80,record!K:K,"late2")'
p2163
aS'=COUNTIFS(record!B:B,report!B80,record!K:K,"late3")'
p2164
aS'=IF(AND(E80="FTE",F80<>$F$2,G80=MAX(G:G),L80=0,M80=0,Q80<=5,R80=0,S80=0,T80=0,V80=0),"Y","N")'
p2165
aV=COUNTIFS(record!B:B,report!B80,record!K:K,"\u65f7\u5de5\u534a\u5929")/2+COUNTIFS(record!B:B,report!B80,record!K:K,"\u65f7\u5de5")
p2166
aS'=V80'
p2167
aV\u53e3\u5934\u8b66\u544a
p2168
aS"=VLOOKUP(A80,'[1]Annual Leave'!$A:$O,15,FALSE)"
p2169
aS'=SUMIF(record!B:B,report!B80,record!M:M)'
p2170
aS'=SUMIF(record!B:B,report!B80,record!O:O)'
p2171
aS'=SUMIF(record!B:B,report!B80,record!N:N)'
p2172
aS'=SUMIF(record!B:B,report!B80,record!P:P)'
p2173
aS'=VLOOKUP(A80,[2]Report!$A:$AA,27,FALSE)'
p2174
ag32
aa(lp2175
VAF1020
p2176
aVTitus
p2177
aVKok Wee Tag (\u90d1\u56fd\u4f1f)
p2178
aVResigned \u79bb\u804c
p2179
ag96
ag68
aL22L
aS'=G81-L81-M81'
p2180
aS'=G81-J81'
p2181
aS'=L81+M81+N81+O81+T81'
p2182
aS'=L81+M81+N81+O81+P81'
p2183
aS"=VLOOKUP(A81,'[1]201510'!$A:$S,5,FALSE)"
p2184
aS"=VLOOKUP(A81,'[1]201510'!$A:$AG,6,FALSE)"
p2185
aS"=VLOOKUP(A81,'[1]201510'!$A:$U,7,FALSE)"
p2186
aS"=VLOOKUP(A81,'[1]201510'!$A:$R,8,FALSE)"
p2187
aS"=-VLOOKUP(A81,'[1]201510'!$A:$Y,10,FALSE)/8"
p2188
aS'=N81+O81'
p2189
aS'=COUNTIFS(record!B:B,report!B81,record!K:K,"late1")'
p2190
aS'=COUNTIFS(record!B:B,report!B81,record!K:K,"late2")'
p2191
aS'=COUNTIFS(record!B:B,report!B81,record!K:K,"late3")'
p2192
aS'=IF(AND(E81="FTE",F81<>$F$2,G81=MAX(G:G),L81=0,M81=0,Q81<=5,R81=0,S81=0,T81=0,V81=0),"Y","N")'
p2193
aV=COUNTIFS(record!B:B,report!B81,record!K:K,"\u65f7\u5de5\u534a\u5929")/2+COUNTIFS(record!B:B,report!B81,record!K:K,"\u65f7\u5de5")
p2194
aS'=V81'
p2195
aNaS"=VLOOKUP(A81,'[1]Annual Leave'!$A:$O,15,FALSE)"
p2196
aS'=SUMIF(record!B:B,report!B81,record!M:M)'
p2197
aS'=SUMIF(record!B:B,report!B81,record!O:O)'
p2198
aS'=SUMIF(record!B:B,report!B81,record!N:N)'
p2199
aS'=SUMIF(record!B:B,report!B81,record!P:P)'
p2200
aS'=VLOOKUP(A81,[2]Report!$A:$AA,27,FALSE)'
p2201
aV1004
p2202
aa(lp2203
VAE1711
p2204
aV\u6c88\u6653\u5029
p2205
aVShen Xiaoqian
p2206
ag37
ag96
ag68
aL22L
aS'=G82-L82-M82'
p2207
aS'=G82-J82'
p2208
aS'=L82+M82+N82+O82+T82'
p2209
aS'=L82+M82+N82+O82+P82'
p2210
aS"=VLOOKUP(A82,'[1]201510'!$A:$S,5,FALSE)"
p2211
aS"=VLOOKUP(A82,'[1]201510'!$A:$AG,6,FALSE)"
p2212
aS"=VLOOKUP(A82,'[1]201510'!$A:$U,7,FALSE)"
p2213
aS"=VLOOKUP(A82,'[1]201510'!$A:$R,8,FALSE)"
p2214
aS"=-VLOOKUP(A82,'[1]201510'!$A:$Y,10,FALSE)/8"
p2215
aS'=N82+O82'
p2216
aS'=COUNTIFS(record!B:B,report!B82,record!K:K,"late1")'
p2217
aS'=COUNTIFS(record!B:B,report!B82,record!K:K,"late2")'
p2218
aS'=COUNTIFS(record!B:B,report!B82,record!K:K,"late3")'
p2219
aS'=IF(AND(E82="FTE",F82<>$F$2,G82=MAX(G:G),L82=0,M82=0,Q82<=5,R82=0,S82=0,T82=0,V82=0),"Y","N")'
p2220
aV=COUNTIFS(record!B:B,report!B82,record!K:K,"\u65f7\u5de5\u534a\u5929")/2+COUNTIFS(record!B:B,report!B82,record!K:K,"\u65f7\u5de5")
p2221
aS'=V82'
p2222
aNaS"=VLOOKUP(A82,'[1]Annual Leave'!$A:$O,15,FALSE)"
p2223
aS'=SUMIF(record!B:B,report!B82,record!M:M)'
p2224
aS'=SUMIF(record!B:B,report!B82,record!O:O)'
p2225
aS'=SUMIF(record!B:B,report!B82,record!N:N)'
p2226
aS'=SUMIF(record!B:B,report!B82,record!P:P)'
p2227
aS'=VLOOKUP(A82,[2]Report!$A:$AA,27,FALSE)'
p2228
aV1119
p2229
aa(lp2230
VAE1716
p2231
aV\u8d3a\u9ece
p2232
aVNature He Li
p2233
ag37
ag96
ag68
aL22L
aS'=G83-L83-M83'
p2234
aS'=G83-J83'
p2235
aS'=L83+M83+N83+O83+T83'
p2236
aS'=L83+M83+N83+O83+P83'
p2237
aS"=VLOOKUP(A83,'[1]201510'!$A:$S,5,FALSE)"
p2238
aS"=VLOOKUP(A83,'[1]201510'!$A:$AG,6,FALSE)"
p2239
aS"=VLOOKUP(A83,'[1]201510'!$A:$U,7,FALSE)"
p2240
aS"=VLOOKUP(A83,'[1]201510'!$A:$R,8,FALSE)"
p2241
aS"=-VLOOKUP(A83,'[1]201510'!$A:$Y,10,FALSE)/8"
p2242
aS'=N83+O83'
p2243
aS'=COUNTIFS(record!B:B,report!B83,record!K:K,"late1")'
p2244
aS'=COUNTIFS(record!B:B,report!B83,record!K:K,"late2")'
p2245
aS'=COUNTIFS(record!B:B,report!B83,record!K:K,"late3")'
p2246
aS'=IF(AND(E83="FTE",F83<>$F$2,G83=MAX(G:G),L83=0,M83=0,Q83<=5,R83=0,S83=0,T83=0,V83=0),"Y","N")'
p2247
aV=COUNTIFS(record!B:B,report!B83,record!K:K,"\u65f7\u5de5\u534a\u5929")/2+COUNTIFS(record!B:B,report!B83,record!K:K,"\u65f7\u5de5")
p2248
aS'=V83'
p2249
aNaS"=VLOOKUP(A83,'[1]Annual Leave'!$A:$O,15,FALSE)"
p2250
aS'=SUMIF(record!B:B,report!B83,record!M:M)'
p2251
aS'=SUMIF(record!B:B,report!B83,record!O:O)'
p2252
aS'=SUMIF(record!B:B,report!B83,record!N:N)'
p2253
aS'=SUMIF(record!B:B,report!B83,record!P:P)'
p2254
aS'=VLOOKUP(A83,[2]Report!$A:$AA,27,FALSE)'
p2255
aV1121
p2256
aa(lp2257
VAE1733
p2258
aV\u5c24\u52b2\u8d85
p2259
aVYou Jinchao
p2260
ag37
ag96
ag68
aL22L
aS'=G84-L84-M84'
p2261
aS'=G84-J84'
p2262
aS'=L84+M84+N84+O84+T84'
p2263
aS'=L84+M84+N84+O84+P84'
p2264
aS"=VLOOKUP(A84,'[1]201510'!$A:$S,5,FALSE)"
p2265
aS"=VLOOKUP(A84,'[1]201510'!$A:$AG,6,FALSE)"
p2266
aS"=VLOOKUP(A84,'[1]201510'!$A:$U,7,FALSE)"
p2267
aS"=VLOOKUP(A84,'[1]201510'!$A:$R,8,FALSE)"
p2268
aS"=-VLOOKUP(A84,'[1]201510'!$A:$Y,10,FALSE)/8"
p2269
aS'=N84+O84'
p2270
aS'=COUNTIFS(record!B:B,report!B84,record!K:K,"late1")'
p2271
aS'=COUNTIFS(record!B:B,report!B84,record!K:K,"late2")'
p2272
aS'=COUNTIFS(record!B:B,report!B84,record!K:K,"late3")'
p2273
aS'=IF(AND(E84="FTE",F84<>$F$2,G84=MAX(G:G),L84=0,M84=0,Q84<=5,R84=0,S84=0,T84=0,V84=0),"Y","N")'
p2274
aV=COUNTIFS(record!B:B,report!B84,record!K:K,"\u65f7\u5de5\u534a\u5929")/2+COUNTIFS(record!B:B,report!B84,record!K:K,"\u65f7\u5de5")
p2275
aS'=V84'
p2276
aNaS"=VLOOKUP(A84,'[1]Annual Leave'!$A:$O,15,FALSE)"
p2277
aS'=SUMIF(record!B:B,report!B84,record!M:M)'
p2278
aS'=SUMIF(record!B:B,report!B84,record!O:O)'
p2279
aS'=SUMIF(record!B:B,report!B84,record!N:N)'
p2280
aS'=SUMIF(record!B:B,report!B84,record!P:P)'
p2281
aS'=VLOOKUP(A84,[2]Report!$A:$AA,27,FALSE)'
p2282
aV1123
p2283
aa(lp2284
VAE1736
p2285
aV\u5218\u8bd7\u7434
p2286
aVLiu Shiqin
p2287
ag37
ag96
ag68
aL22L
aS'=G85-L85-M85'
p2288
aS'=G85-J85'
p2289
aS'=L85+M85+N85+O85+T85'
p2290
aS'=L85+M85+N85+O85+P85'
p2291
aS"=VLOOKUP(A85,'[1]201510'!$A:$S,5,FALSE)"
p2292
aS"=VLOOKUP(A85,'[1]201510'!$A:$AG,6,FALSE)"
p2293
aS"=VLOOKUP(A85,'[1]201510'!$A:$U,7,FALSE)"
p2294
aS"=VLOOKUP(A85,'[1]201510'!$A:$R,8,FALSE)"
p2295
aS"=-VLOOKUP(A85,'[1]201510'!$A:$Y,10,FALSE)/8"
p2296
aS'=N85+O85'
p2297
aS'=COUNTIFS(record!B:B,report!B85,record!K:K,"late1")'
p2298
aS'=COUNTIFS(record!B:B,report!B85,record!K:K,"late2")'
p2299
aS'=COUNTIFS(record!B:B,report!B85,record!K:K,"late3")'
p2300
aS'=IF(AND(E85="FTE",F85<>$F$2,G85=MAX(G:G),L85=0,M85=0,Q85<=5,R85=0,S85=0,T85=0,V85=0),"Y","N")'
p2301
aV=COUNTIFS(record!B:B,report!B85,record!K:K,"\u65f7\u5de5\u534a\u5929")/2+COUNTIFS(record!B:B,report!B85,record!K:K,"\u65f7\u5de5")
p2302
aS'=V85'
p2303
ag2168
aS"=VLOOKUP(A85,'[1]Annual Leave'!$A:$O,15,FALSE)"
p2304
aS'=SUMIF(record!B:B,report!B85,record!M:M)'
p2305
aS'=SUMIF(record!B:B,report!B85,record!O:O)'
p2306
aS'=SUMIF(record!B:B,report!B85,record!N:N)'
p2307
aS'=SUMIF(record!B:B,report!B85,record!P:P)'
p2308
aVliushiqin@smalltreemedia.com
p2309
aV1124
p2310
aa(lp2311
VAE1739
p2312
aV\u90ed\u5a01
p2313
aVVicky Guo Wei
p2314
ag37
ag96
ag68
aL22L
aS'=G86-L86-M86'
p2315
aS'=G86-J86'
p2316
aS'=L86+M86+N86+O86+T86'
p2317
aS'=L86+M86+N86+O86+P86'
p2318
aS"=VLOOKUP(A86,'[1]201510'!$A:$S,5,FALSE)"
p2319
aS"=VLOOKUP(A86,'[1]201510'!$A:$AG,6,FALSE)"
p2320
aS"=VLOOKUP(A86,'[1]201510'!$A:$U,7,FALSE)"
p2321
aS"=VLOOKUP(A86,'[1]201510'!$A:$R,8,FALSE)"
p2322
aS"=-VLOOKUP(A86,'[1]201510'!$A:$Y,10,FALSE)/8"
p2323
aS'=N86+O86'
p2324
aS'=COUNTIFS(record!B:B,report!B86,record!K:K,"late1")'
p2325
aS'=COUNTIFS(record!B:B,report!B86,record!K:K,"late2")'
p2326
aS'=COUNTIFS(record!B:B,report!B86,record!K:K,"late3")'
p2327
aS'=IF(AND(E86="FTE",F86<>$F$2,G86=MAX(G:G),L86=0,M86=0,Q86<=5,R86=0,S86=0,T86=0,V86=0),"Y","N")'
p2328
aV=COUNTIFS(record!B:B,report!B86,record!K:K,"\u65f7\u5de5\u534a\u5929")/2+COUNTIFS(record!B:B,report!B86,record!K:K,"\u65f7\u5de5")
p2329
aS'=V86'
p2330
aNaS"=VLOOKUP(A86,'[1]Annual Leave'!$A:$O,15,FALSE)"
p2331
aS'=SUMIF(record!B:B,report!B86,record!M:M)'
p2332
aS'=SUMIF(record!B:B,report!B86,record!O:O)'
p2333
aS'=SUMIF(record!B:B,report!B86,record!N:N)'
p2334
aS'=SUMIF(record!B:B,report!B86,record!P:P)'
p2335
aS'=VLOOKUP(A86,[2]Report!$A:$AA,27,FALSE)'
p2336
aV1125
p2337
aa(lp2338
VAE1747
p2339
aV\u9ec4\u8d1d
p2340
aVHuang Bei
p2341
ag37
ag96
ag68
aL22L
aS'=G87-L87-M87'
p2342
aS'=G87-J87'
p2343
aS'=L87+M87+N87+O87+T87'
p2344
aS'=L87+M87+N87+O87+P87'
p2345
aS"=VLOOKUP(A87,'[1]201510'!$A:$S,5,FALSE)"
p2346
aS"=VLOOKUP(A87,'[1]201510'!$A:$AG,6,FALSE)"
p2347
aS"=VLOOKUP(A87,'[1]201510'!$A:$U,7,FALSE)"
p2348
aS"=VLOOKUP(A87,'[1]201510'!$A:$R,8,FALSE)"
p2349
aS"=-VLOOKUP(A87,'[1]201510'!$A:$Y,10,FALSE)/8"
p2350
aS'=N87+O87'
p2351
aS'=COUNTIFS(record!B:B,report!B87,record!K:K,"late1")'
p2352
aS'=COUNTIFS(record!B:B,report!B87,record!K:K,"late2")'
p2353
aS'=COUNTIFS(record!B:B,report!B87,record!K:K,"late3")'
p2354
aS'=IF(AND(E87="FTE",F87<>$F$2,G87=MAX(G:G),L87=0,M87=0,Q87<=5,R87=0,S87=0,T87=0,V87=0),"Y","N")'
p2355
aV=COUNTIFS(record!B:B,report!B87,record!K:K,"\u65f7\u5de5\u534a\u5929")/2+COUNTIFS(record!B:B,report!B87,record!K:K,"\u65f7\u5de5")
p2356
aS'=V87'
p2357
aNaS"=VLOOKUP(A87,'[1]Annual Leave'!$A:$O,15,FALSE)"
p2358
aS'=SUMIF(record!B:B,report!B87,record!M:M)'
p2359
aS'=SUMIF(record!B:B,report!B87,record!O:O)'
p2360
aS'=SUMIF(record!B:B,report!B87,record!N:N)'
p2361
aS'=SUMIF(record!B:B,report!B87,record!P:P)'
p2362
aS'=VLOOKUP(A87,[2]Report!$A:$AA,27,FALSE)'
p2363
aV1130
p2364
aa(lp2365
VAE1754
p2366
aV\u738b\u5e78\u53ef
p2367
aVWang Xingke
p2368
ag37
ag96
ag68
aL22L
aS'=G88-L88-M88'
p2369
aS'=G88-J88'
p2370
aS'=L88+M88+N88+O88+T88'
p2371
aS'=L88+M88+N88+O88+P88'
p2372
aS"=VLOOKUP(A88,'[1]201510'!$A:$S,5,FALSE)"
p2373
aS"=VLOOKUP(A88,'[1]201510'!$A:$AG,6,FALSE)"
p2374
aS"=VLOOKUP(A88,'[1]201510'!$A:$U,7,FALSE)"
p2375
aS"=VLOOKUP(A88,'[1]201510'!$A:$R,8,FALSE)"
p2376
aS"=-VLOOKUP(A88,'[1]201510'!$A:$Y,10,FALSE)/8"
p2377
aS'=N88+O88'
p2378
aS'=COUNTIFS(record!B:B,report!B88,record!K:K,"late1")'
p2379
aS'=COUNTIFS(record!B:B,report!B88,record!K:K,"late2")'
p2380
aS'=COUNTIFS(record!B:B,report!B88,record!K:K,"late3")'
p2381
aS'=IF(AND(E88="FTE",F88<>$F$2,G88=MAX(G:G),L88=0,M88=0,Q88<=5,R88=0,S88=0,T88=0,V88=0),"Y","N")'
p2382
aV=COUNTIFS(record!B:B,report!B88,record!K:K,"\u65f7\u5de5\u534a\u5929")/2+COUNTIFS(record!B:B,report!B88,record!K:K,"\u65f7\u5de5")
p2383
aS'=V88'
p2384
aNaS"=VLOOKUP(A88,'[1]Annual Leave'!$A:$O,15,FALSE)"
p2385
aS'=SUMIF(record!B:B,report!B88,record!M:M)'
p2386
aS'=SUMIF(record!B:B,report!B88,record!O:O)'
p2387
aS'=SUMIF(record!B:B,report!B88,record!N:N)'
p2388
aS'=SUMIF(record!B:B,report!B88,record!P:P)'
p2389
aS'=VLOOKUP(A88,[2]Report!$A:$AA,27,FALSE)'
p2390
aV1135
p2391
aa(lp2392
VAE1755
p2393
aV\u827e\u5a1f
p2394
aVAi Juan
p2395
ag37
ag96
ag68
aL22L
aS'=G89-L89-M89'
p2396
aS'=G89-J89'
p2397
aS'=L89+M89+N89+O89+T89'
p2398
aS'=L89+M89+N89+O89+P89'
p2399
aS"=VLOOKUP(A89,'[1]201510'!$A:$S,5,FALSE)"
p2400
aS"=VLOOKUP(A89,'[1]201510'!$A:$AG,6,FALSE)"
p2401
aS"=VLOOKUP(A89,'[1]201510'!$A:$U,7,FALSE)"
p2402
aS"=VLOOKUP(A89,'[1]201510'!$A:$R,8,FALSE)"
p2403
aS"=-VLOOKUP(A89,'[1]201510'!$A:$Y,10,FALSE)/8"
p2404
aS'=N89+O89'
p2405
aS'=COUNTIFS(record!B:B,report!B89,record!K:K,"late1")'
p2406
aS'=COUNTIFS(record!B:B,report!B89,record!K:K,"late2")'
p2407
aS'=COUNTIFS(record!B:B,report!B89,record!K:K,"late3")'
p2408
aS'=IF(AND(E89="FTE",F89<>$F$2,G89=MAX(G:G),L89=0,M89=0,Q89<=5,R89=0,S89=0,T89=0,V89=0),"Y","N")'
p2409
aV=COUNTIFS(record!B:B,report!B89,record!K:K,"\u65f7\u5de5\u534a\u5929")/2+COUNTIFS(record!B:B,report!B89,record!K:K,"\u65f7\u5de5")
p2410
aS'=V89'
p2411
aNaS"=VLOOKUP(A89,'[1]Annual Leave'!$A:$O,15,FALSE)"
p2412
aS'=SUMIF(record!B:B,report!B89,record!M:M)'
p2413
aS'=SUMIF(record!B:B,report!B89,record!O:O)'
p2414
aS'=SUMIF(record!B:B,report!B89,record!N:N)'
p2415
aS'=SUMIF(record!B:B,report!B89,record!P:P)'
p2416
aS'=VLOOKUP(A89,[2]Report!$A:$AA,27,FALSE)'
p2417
aV1136
p2418
aa(lp2419
VAE1756
p2420
aV\u9ec4\u701a\u4e4b
p2421
aVHuang Hanzhi
p2422
ag37
ag96
ag68
aL22L
aS'=G90-L90-M90'
p2423
aS'=G90-J90'
p2424
aS'=L90+M90+N90+O90+T90'
p2425
aS'=L90+M90+N90+O90+P90'
p2426
aS"=VLOOKUP(A90,'[1]201510'!$A:$S,5,FALSE)"
p2427
aS"=VLOOKUP(A90,'[1]201510'!$A:$AG,6,FALSE)"
p2428
aS"=VLOOKUP(A90,'[1]201510'!$A:$U,7,FALSE)"
p2429
aS"=VLOOKUP(A90,'[1]201510'!$A:$R,8,FALSE)"
p2430
aS"=-VLOOKUP(A90,'[1]201510'!$A:$Y,10,FALSE)/8"
p2431
aS'=N90+O90'
p2432
aS'=COUNTIFS(record!B:B,report!B90,record!K:K,"late1")'
p2433
aS'=COUNTIFS(record!B:B,report!B90,record!K:K,"late2")'
p2434
aS'=COUNTIFS(record!B:B,report!B90,record!K:K,"late3")'
p2435
aS'=IF(AND(E90="FTE",F90<>$F$2,G90=MAX(G:G),L90=0,M90=0,Q90<=5,R90=0,S90=0,T90=0,V90=0),"Y","N")'
p2436
aV=COUNTIFS(record!B:B,report!B90,record!K:K,"\u65f7\u5de5\u534a\u5929")/2+COUNTIFS(record!B:B,report!B90,record!K:K,"\u65f7\u5de5")
p2437
aS'=V90'
p2438
aNaS"=VLOOKUP(A90,'[1]Annual Leave'!$A:$O,15,FALSE)"
p2439
aS'=SUMIF(record!B:B,report!B90,record!M:M)'
p2440
aS'=SUMIF(record!B:B,report!B90,record!O:O)'
p2441
aS'=SUMIF(record!B:B,report!B90,record!N:N)'
p2442
aS'=SUMIF(record!B:B,report!B90,record!P:P)'
p2443
aS'=VLOOKUP(A90,[2]Report!$A:$AA,27,FALSE)'
p2444
aV1137
p2445
aa(lp2446
VAE1757
p2447
aV\u8881\u6d69\u8f69
p2448
aVYuan Haoxuan
p2449
ag37
ag67
ag68
aL22L
aS'=G91-L91-M91'
p2450
aS'=G91-J91'
p2451
aS'=L91+M91+N91+O91+T91'
p2452
aS'=L91+M91+N91+O91+P91'
p2453
aS"=VLOOKUP(A91,'[1]201510'!$A:$S,5,FALSE)"
p2454
aS"=VLOOKUP(A91,'[1]201510'!$A:$AG,6,FALSE)"
p2455
aS"=VLOOKUP(A91,'[1]201510'!$A:$U,7,FALSE)"
p2456
aS"=VLOOKUP(A91,'[1]201510'!$A:$R,8,FALSE)"
p2457
aS"=-VLOOKUP(A91,'[1]201510'!$A:$Y,10,FALSE)/8"
p2458
aS'=N91+O91'
p2459
aS'=COUNTIFS(record!B:B,report!B91,record!K:K,"late1")'
p2460
aS'=COUNTIFS(record!B:B,report!B91,record!K:K,"late2")'
p2461
aS'=COUNTIFS(record!B:B,report!B91,record!K:K,"late3")'
p2462
aS'=IF(AND(E91="FTE",F91<>$F$2,G91=MAX(G:G),L91=0,M91=0,Q91<=5,R91=0,S91=0,T91=0,V91=0),"Y","N")'
p2463
aV=COUNTIFS(record!B:B,report!B91,record!K:K,"\u65f7\u5de5\u534a\u5929")/2+COUNTIFS(record!B:B,report!B91,record!K:K,"\u65f7\u5de5")
p2464
aS'=V91'
p2465
aNaS"=VLOOKUP(A91,'[1]Annual Leave'!$A:$O,15,FALSE)"
p2466
aS'=SUMIF(record!B:B,report!B91,record!M:M)'
p2467
aS'=SUMIF(record!B:B,report!B91,record!O:O)'
p2468
aS'=SUMIF(record!B:B,report!B91,record!N:N)'
p2469
aS'=SUMIF(record!B:B,report!B91,record!P:P)'
p2470
aS'=VLOOKUP(A91,[2]Report!$A:$AA,27,FALSE)'
p2471
aV1138
p2472
aa(lp2473
VAE1758
p2474
aV\u66fe\u9e92\u664f
p2475
aVZeng Qiyan
p2476
ag37
ag67
ag68
aL22L
aS'=G92-L92-M92'
p2477
aS'=G92-J92'
p2478
aS'=L92+M92+N92+O92+T92'
p2479
aS'=L92+M92+N92+O92+P92'
p2480
aS"=VLOOKUP(A92,'[1]201510'!$A:$S,5,FALSE)"
p2481
aS"=VLOOKUP(A92,'[1]201510'!$A:$AG,6,FALSE)"
p2482
aS"=VLOOKUP(A92,'[1]201510'!$A:$U,7,FALSE)"
p2483
aS"=VLOOKUP(A92,'[1]201510'!$A:$R,8,FALSE)"
p2484
aS"=-VLOOKUP(A92,'[1]201510'!$A:$Y,10,FALSE)/8"
p2485
aS'=N92+O92'
p2486
aS'=COUNTIFS(record!B:B,report!B92,record!K:K,"late1")'
p2487
aS'=COUNTIFS(record!B:B,report!B92,record!K:K,"late2")'
p2488
aS'=COUNTIFS(record!B:B,report!B92,record!K:K,"late3")'
p2489
aS'=IF(AND(E92="FTE",F92<>$F$2,G92=MAX(G:G),L92=0,M92=0,Q92<=5,R92=0,S92=0,T92=0,V92=0),"Y","N")'
p2490
aV=COUNTIFS(record!B:B,report!B92,record!K:K,"\u65f7\u5de5\u534a\u5929")/2+COUNTIFS(record!B:B,report!B92,record!K:K,"\u65f7\u5de5")
p2491
aS'=V92'
p2492
aNaS"=VLOOKUP(A92,'[1]Annual Leave'!$A:$O,15,FALSE)"
p2493
aS'=SUMIF(record!B:B,report!B92,record!M:M)'
p2494
aS'=SUMIF(record!B:B,report!B92,record!O:O)'
p2495
aS'=SUMIF(record!B:B,report!B92,record!N:N)'
p2496
aS'=SUMIF(record!B:B,report!B92,record!P:P)'
p2497
aS'=VLOOKUP(A92,[2]Report!$A:$AA,27,FALSE)'
p2498
aV1139
p2499
aa(lp2500
VAE1761
p2501
aV\u8c0c\u4e39\u4e39
p2502
aVShen Dandan
p2503
ag37
ag67
ag68
aL22L
aS'=G93-L93-M93'
p2504
aS'=G93-J93'
p2505
aS'=L93+M93+N93+O93+T93'
p2506
aS'=L93+M93+N93+O93+P93'
p2507
aS"=VLOOKUP(A93,'[1]201510'!$A:$S,5,FALSE)"
p2508
aS"=VLOOKUP(A93,'[1]201510'!$A:$AG,6,FALSE)"
p2509
aS"=VLOOKUP(A93,'[1]201510'!$A:$U,7,FALSE)"
p2510
aS"=VLOOKUP(A93,'[1]201510'!$A:$R,8,FALSE)"
p2511
aS"=-VLOOKUP(A93,'[1]201510'!$A:$Y,10,FALSE)/8"
p2512
aS'=N93+O93'
p2513
aS'=COUNTIFS(record!B:B,report!B93,record!K:K,"late1")'
p2514
aS'=COUNTIFS(record!B:B,report!B93,record!K:K,"late2")'
p2515
aS'=COUNTIFS(record!B:B,report!B93,record!K:K,"late3")'
p2516
aS'=IF(AND(E93="FTE",F93<>$F$2,G93=MAX(G:G),L93=0,M93=0,Q93<=5,R93=0,S93=0,T93=0,V93=0),"Y","N")'
p2517
aV=COUNTIFS(record!B:B,report!B93,record!K:K,"\u65f7\u5de5\u534a\u5929")/2+COUNTIFS(record!B:B,report!B93,record!K:K,"\u65f7\u5de5")
p2518
aS'=V93'
p2519
aNaS"=VLOOKUP(A93,'[1]Annual Leave'!$A:$O,15,FALSE)"
p2520
aS'=SUMIF(record!B:B,report!B93,record!M:M)'
p2521
aS'=SUMIF(record!B:B,report!B93,record!O:O)'
p2522
aS'=SUMIF(record!B:B,report!B93,record!N:N)'
p2523
aS'=SUMIF(record!B:B,report!B93,record!P:P)'
p2524
aS'=VLOOKUP(A93,[2]Report!$A:$AA,27,FALSE)'
p2525
aV1142
p2526
aa(lp2527
VAE1766
p2528
aV\u5f20\u96ea\u59ae
p2529
aVZhang Xueni
p2530
ag37
ag67
ag68
aL22L
aS'=G94-L94-M94'
p2531
aS'=G94-J94'
p2532
aS'=L94+M94+N94+O94+T94'
p2533
aS'=L94+M94+N94+O94+P94'
p2534
aS"=VLOOKUP(A94,'[1]201510'!$A:$S,5,FALSE)"
p2535
aS"=VLOOKUP(A94,'[1]201510'!$A:$AG,6,FALSE)"
p2536
aS"=VLOOKUP(A94,'[1]201510'!$A:$U,7,FALSE)"
p2537
aS"=VLOOKUP(A94,'[1]201510'!$A:$R,8,FALSE)"
p2538
aS"=-VLOOKUP(A94,'[1]201510'!$A:$Y,10,FALSE)/8"
p2539
aS'=N94+O94'
p2540
aS'=COUNTIFS(record!B:B,report!B94,record!K:K,"late1")'
p2541
aS'=COUNTIFS(record!B:B,report!B94,record!K:K,"late2")'
p2542
aS'=COUNTIFS(record!B:B,report!B94,record!K:K,"late3")'
p2543
aS'=IF(AND(E94="FTE",F94<>$F$2,G94=MAX(G:G),L94=0,M94=0,Q94<=5,R94=0,S94=0,T94=0,V94=0),"Y","N")'
p2544
aV=COUNTIFS(record!B:B,report!B94,record!K:K,"\u65f7\u5de5\u534a\u5929")/2+COUNTIFS(record!B:B,report!B94,record!K:K,"\u65f7\u5de5")
p2545
aS'=V94'
p2546
aNaS"=VLOOKUP(A94,'[1]Annual Leave'!$A:$O,15,FALSE)"
p2547
aS'=SUMIF(record!B:B,report!B94,record!M:M)'
p2548
aS'=SUMIF(record!B:B,report!B94,record!O:O)'
p2549
aS'=SUMIF(record!B:B,report!B94,record!N:N)'
p2550
aS'=SUMIF(record!B:B,report!B94,record!P:P)'
p2551
aS'=VLOOKUP(A94,[2]Report!$A:$AA,27,FALSE)'
p2552
aV1149
p2553
aa(lp2554
VAE1768
p2555
aV\u4f0d\u601d\u6021
p2556
aVWu Siyi
p2557
ag37
ag67
ag68
aL22L
aS'=G95-L95-M95'
p2558
aS'=G95-J95'
p2559
aS'=L95+M95+N95+O95+T95'
p2560
aS'=L95+M95+N95+O95+P95'
p2561
aS"=VLOOKUP(A95,'[1]201510'!$A:$S,5,FALSE)"
p2562
aS"=VLOOKUP(A95,'[1]201510'!$A:$AG,6,FALSE)"
p2563
aS"=VLOOKUP(A95,'[1]201510'!$A:$U,7,FALSE)"
p2564
aS"=VLOOKUP(A95,'[1]201510'!$A:$R,8,FALSE)"
p2565
aS"=-VLOOKUP(A95,'[1]201510'!$A:$Y,10,FALSE)/8"
p2566
aS'=N95+O95'
p2567
aS'=COUNTIFS(record!B:B,report!B95,record!K:K,"late1")'
p2568
aS'=COUNTIFS(record!B:B,report!B95,record!K:K,"late2")'
p2569
aS'=COUNTIFS(record!B:B,report!B95,record!K:K,"late3")'
p2570
aS'=IF(AND(E95="FTE",F95<>$F$2,G95=MAX(G:G),L95=0,M95=0,Q95<=5,R95=0,S95=0,T95=0,V95=0),"Y","N")'
p2571
aV=COUNTIFS(record!B:B,report!B95,record!K:K,"\u65f7\u5de5\u534a\u5929")/2+COUNTIFS(record!B:B,report!B95,record!K:K,"\u65f7\u5de5")
p2572
aS'=V95'
p2573
aNaS"=VLOOKUP(A95,'[1]Annual Leave'!$A:$O,15,FALSE)"
p2574
aS'=SUMIF(record!B:B,report!B95,record!M:M)'
p2575
aS'=SUMIF(record!B:B,report!B95,record!O:O)'
p2576
aS'=SUMIF(record!B:B,report!B95,record!N:N)'
p2577
aS'=SUMIF(record!B:B,report!B95,record!P:P)'
p2578
aS'=VLOOKUP(A95,[2]Report!$A:$AA,27,FALSE)'
p2579
aV1151
p2580
aa(lp2581
VAE1772
p2582
aV\u5ed6\u5a1f
p2583
aVLiao Juan
p2584
ag37
ag67
ag68
aL22L
aS'=G96-L96-M96'
p2585
aS'=G96-J96'
p2586
aS'=L96+M96+N96+O96+T96'
p2587
aS'=L96+M96+N96+O96+P96'
p2588
aS"=VLOOKUP(A96,'[1]201510'!$A:$S,5,FALSE)"
p2589
aS"=VLOOKUP(A96,'[1]201510'!$A:$AG,6,FALSE)"
p2590
aS"=VLOOKUP(A96,'[1]201510'!$A:$U,7,FALSE)"
p2591
aS"=VLOOKUP(A96,'[1]201510'!$A:$R,8,FALSE)"
p2592
aS"=-VLOOKUP(A96,'[1]201510'!$A:$Y,10,FALSE)/8"
p2593
aS'=N96+O96'
p2594
aS'=COUNTIFS(record!B:B,report!B96,record!K:K,"late1")'
p2595
aS'=COUNTIFS(record!B:B,report!B96,record!K:K,"late2")'
p2596
aS'=COUNTIFS(record!B:B,report!B96,record!K:K,"late3")'
p2597
aS'=IF(AND(E96="FTE",F96<>$F$2,G96=MAX(G:G),L96=0,M96=0,Q96<=5,R96=0,S96=0,T96=0,V96=0),"Y","N")'
p2598
aV=COUNTIFS(record!B:B,report!B96,record!K:K,"\u65f7\u5de5\u534a\u5929")/2+COUNTIFS(record!B:B,report!B96,record!K:K,"\u65f7\u5de5")
p2599
aS'=V96'
p2600
aNaS"=VLOOKUP(A96,'[1]Annual Leave'!$A:$O,15,FALSE)"
p2601
aS'=SUMIF(record!B:B,report!B96,record!M:M)'
p2602
aS'=SUMIF(record!B:B,report!B96,record!O:O)'
p2603
aS'=SUMIF(record!B:B,report!B96,record!N:N)'
p2604
aS'=SUMIF(record!B:B,report!B96,record!P:P)'
p2605
aS'=VLOOKUP(A96,[2]Report!$A:$AA,27,FALSE)'
p2606
aV1155
p2607
aa(lp2608
VAE1774
p2609
aV\u7f57\u4e39QA
p2610
aVLuo Dan
p2611
ag37
ag67
ag68
aL22L
aS'=G97-L97-M97'
p2612
aS'=G97-J97'
p2613
aS'=L97+M97+N97+O97+T97'
p2614
aS'=L97+M97+N97+O97+P97'
p2615
aS"=VLOOKUP(A97,'[1]201510'!$A:$S,5,FALSE)"
p2616
aS"=VLOOKUP(A97,'[1]201510'!$A:$AG,6,FALSE)"
p2617
aS"=VLOOKUP(A97,'[1]201510'!$A:$U,7,FALSE)"
p2618
aS"=VLOOKUP(A97,'[1]201510'!$A:$R,8,FALSE)"
p2619
aS"=-VLOOKUP(A97,'[1]201510'!$A:$Y,10,FALSE)/8"
p2620
aS'=N97+O97'
p2621
aS'=COUNTIFS(record!B:B,report!B97,record!K:K,"late1")'
p2622
aS'=COUNTIFS(record!B:B,report!B97,record!K:K,"late2")'
p2623
aS'=COUNTIFS(record!B:B,report!B97,record!K:K,"late3")'
p2624
aS'=IF(AND(E97="FTE",F97<>$F$2,G97=MAX(G:G),L97=0,M97=0,Q97<=5,R97=0,S97=0,T97=0,V97=0),"Y","N")'
p2625
aV=COUNTIFS(record!B:B,report!B97,record!K:K,"\u65f7\u5de5\u534a\u5929")/2+COUNTIFS(record!B:B,report!B97,record!K:K,"\u65f7\u5de5")
p2626
aS'=V97'
p2627
aNaS"=VLOOKUP(A97,'[1]Annual Leave'!$A:$O,15,FALSE)"
p2628
aS'=SUMIF(record!B:B,report!B97,record!M:M)'
p2629
aS'=SUMIF(record!B:B,report!B97,record!O:O)'
p2630
aS'=SUMIF(record!B:B,report!B97,record!N:N)'
p2631
aS'=SUMIF(record!B:B,report!B97,record!P:P)'
p2632
aS'=VLOOKUP(A97,[2]Report!$A:$AA,27,FALSE)'
p2633
ag32
aa(lp2634
VAE1776
p2635
aV\u7f57\u4e391
p2636
ag2611
ag37
ag67
ag68
aL22L
aS'=G98-L98-M98'
p2637
aS'=G98-J98'
p2638
aS'=L98+M98+N98+O98+T98'
p2639
aS'=L98+M98+N98+O98+P98'
p2640
aS"=VLOOKUP(A98,'[1]201510'!$A:$S,5,FALSE)"
p2641
aS"=VLOOKUP(A98,'[1]201510'!$A:$AG,6,FALSE)"
p2642
aS"=VLOOKUP(A98,'[1]201510'!$A:$U,7,FALSE)"
p2643
aS"=VLOOKUP(A98,'[1]201510'!$A:$R,8,FALSE)"
p2644
aS"=-VLOOKUP(A98,'[1]201510'!$A:$Y,10,FALSE)/8"
p2645
aS'=N98+O98'
p2646
aS'=COUNTIFS(record!B:B,report!B98,record!K:K,"late1")'
p2647
aS'=COUNTIFS(record!B:B,report!B98,record!K:K,"late2")'
p2648
aS'=COUNTIFS(record!B:B,report!B98,record!K:K,"late3")'
p2649
aS'=IF(AND(E98="FTE",F98<>$F$2,G98=MAX(G:G),L98=0,M98=0,Q98<=5,R98=0,S98=0,T98=0,V98=0),"Y","N")'
p2650
aV=COUNTIFS(record!B:B,report!B98,record!K:K,"\u65f7\u5de5\u534a\u5929")/2+COUNTIFS(record!B:B,report!B98,record!K:K,"\u65f7\u5de5")
p2651
aS'=V98'
p2652
aNaS"=VLOOKUP(A98,'[1]Annual Leave'!$A:$O,15,FALSE)"
p2653
aS'=SUMIF(record!B:B,report!B98,record!M:M)'
p2654
aS'=SUMIF(record!B:B,report!B98,record!O:O)'
p2655
aS'=SUMIF(record!B:B,report!B98,record!N:N)'
p2656
aS'=SUMIF(record!B:B,report!B98,record!P:P)'
p2657
aS'=VLOOKUP(A98,[2]Report!$A:$AA,27,FALSE)'
p2658
aV1158
p2659
aa(lp2660
VAE1777
p2661
aV\u5f90\u82d2
p2662
aVXu Ran
p2663
ag37
ag67
ag68
aL22L
aS'=G99-L99-M99'
p2664
aS'=G99-J99'
p2665
aS'=L99+M99+N99+O99+T99'
p2666
aS'=L99+M99+N99+O99+P99'
p2667
aS"=VLOOKUP(A99,'[1]201510'!$A:$S,5,FALSE)"
p2668
aS"=VLOOKUP(A99,'[1]201510'!$A:$AG,6,FALSE)"
p2669
aS"=VLOOKUP(A99,'[1]201510'!$A:$U,7,FALSE)"
p2670
aS"=VLOOKUP(A99,'[1]201510'!$A:$R,8,FALSE)"
p2671
aS"=-VLOOKUP(A99,'[1]201510'!$A:$Y,10,FALSE)/8"
p2672
aS'=N99+O99'
p2673
aS'=COUNTIFS(record!B:B,report!B99,record!K:K,"late1")'
p2674
aS'=COUNTIFS(record!B:B,report!B99,record!K:K,"late2")'
p2675
aS'=COUNTIFS(record!B:B,report!B99,record!K:K,"late3")'
p2676
aS'=IF(AND(E99="FTE",F99<>$F$2,G99=MAX(G:G),L99=0,M99=0,Q99<=5,R99=0,S99=0,T99=0,V99=0),"Y","N")'
p2677
aV=COUNTIFS(record!B:B,report!B99,record!K:K,"\u65f7\u5de5\u534a\u5929")/2+COUNTIFS(record!B:B,report!B99,record!K:K,"\u65f7\u5de5")
p2678
aS'=V99'
p2679
aNaS"=VLOOKUP(A99,'[1]Annual Leave'!$A:$O,15,FALSE)"
p2680
aS'=SUMIF(record!B:B,report!B99,record!M:M)'
p2681
aS'=SUMIF(record!B:B,report!B99,record!O:O)'
p2682
aS'=SUMIF(record!B:B,report!B99,record!N:N)'
p2683
aS'=SUMIF(record!B:B,report!B99,record!P:P)'
p2684
aS'=VLOOKUP(A99,[2]Report!$A:$AA,27,FALSE)'
p2685
aV1159
p2686
aa(lp2687
VAE1784
p2688
aV\u4faf\u769d
p2689
aVHou Huang
p2690
ag37
ag67
ag68
aL22L
aS'=G100-L100-M100'
p2691
aS'=G100-J100'
p2692
aS'=L100+M100+N100+O100+T100'
p2693
aS'=L100+M100+N100+O100+P100'
p2694
aS"=VLOOKUP(A100,'[1]201510'!$A:$S,5,FALSE)"
p2695
aS"=VLOOKUP(A100,'[1]201510'!$A:$AG,6,FALSE)"
p2696
aS"=VLOOKUP(A100,'[1]201510'!$A:$U,7,FALSE)"
p2697
aS"=VLOOKUP(A100,'[1]201510'!$A:$R,8,FALSE)"
p2698
aS"=-VLOOKUP(A100,'[1]201510'!$A:$Y,10,FALSE)/8"
p2699
aS'=N100+O100'
p2700
aS'=COUNTIFS(record!B:B,report!B100,record!K:K,"late1")'
p2701
aS'=COUNTIFS(record!B:B,report!B100,record!K:K,"late2")'
p2702
aS'=COUNTIFS(record!B:B,report!B100,record!K:K,"late3")'
p2703
aS'=IF(AND(E100="FTE",F100<>$F$2,G100=MAX(G:G),L100=0,M100=0,Q100<=5,R100=0,S100=0,T100=0,V100=0),"Y","N")'
p2704
aV=COUNTIFS(record!B:B,report!B100,record!K:K,"\u65f7\u5de5\u534a\u5929")/2+COUNTIFS(record!B:B,report!B100,record!K:K,"\u65f7\u5de5")
p2705
aS'=V100'
p2706
aNaS"=VLOOKUP(A100,'[1]Annual Leave'!$A:$O,15,FALSE)"
p2707
aS'=SUMIF(record!B:B,report!B100,record!M:M)'
p2708
aS'=SUMIF(record!B:B,report!B100,record!O:O)'
p2709
aS'=SUMIF(record!B:B,report!B100,record!N:N)'
p2710
aS'=SUMIF(record!B:B,report!B100,record!P:P)'
p2711
aS'=VLOOKUP(A100,[2]Report!$A:$AA,27,FALSE)'
p2712
ag32
aa(lp2713
VAE1785
p2714
aV\u80e1\u4e60\u7965
p2715
aVHu Xixiang
p2716
ag37
ag67
ag68
aL22L
aS'=G101-L101-M101'
p2717
aS'=G101-J101'
p2718
aS'=L101+M101+N101+O101+T101'
p2719
aS'=L101+M101+N101+O101+P101'
p2720
aS"=VLOOKUP(A101,'[1]201510'!$A:$S,5,FALSE)"
p2721
aS"=VLOOKUP(A101,'[1]201510'!$A:$AG,6,FALSE)"
p2722
aS"=VLOOKUP(A101,'[1]201510'!$A:$U,7,FALSE)"
p2723
aS"=VLOOKUP(A101,'[1]201510'!$A:$R,8,FALSE)"
p2724
aS"=-VLOOKUP(A101,'[1]201510'!$A:$Y,10,FALSE)/8"
p2725
aS'=N101+O101'
p2726
aS'=COUNTIFS(record!B:B,report!B101,record!K:K,"late1")'
p2727
aS'=COUNTIFS(record!B:B,report!B101,record!K:K,"late2")'
p2728
aS'=COUNTIFS(record!B:B,report!B101,record!K:K,"late3")'
p2729
aS'=IF(AND(E101="FTE",F101<>$F$2,G101=MAX(G:G),L101=0,M101=0,Q101<=5,R101=0,S101=0,T101=0,V101=0),"Y","N")'
p2730
aV=COUNTIFS(record!B:B,report!B101,record!K:K,"\u65f7\u5de5\u534a\u5929")/2+COUNTIFS(record!B:B,report!B101,record!K:K,"\u65f7\u5de5")
p2731
aS'=V101'
p2732
aNaS"=VLOOKUP(A101,'[1]Annual Leave'!$A:$O,15,FALSE)"
p2733
aS'=SUMIF(record!B:B,report!B101,record!M:M)'
p2734
aS'=SUMIF(record!B:B,report!B101,record!O:O)'
p2735
aS'=SUMIF(record!B:B,report!B101,record!N:N)'
p2736
aS'=SUMIF(record!B:B,report!B101,record!P:P)'
p2737
aS'=VLOOKUP(A101,[2]Report!$A:$AA,27,FALSE)'
p2738
aV1182
p2739
aa(lp2740
VAE1788
p2741
aV\u666f\u7490
p2742
aVJing Lu
p2743
ag37
ag67
ag68
aL22L
aS'=G102-L102-M102'
p2744
aS'=G102-J102'
p2745
aS'=L102+M102+N102+O102+T102'
p2746
aS'=L102+M102+N102+O102+P102'
p2747
aS"=VLOOKUP(A102,'[1]201510'!$A:$S,5,FALSE)"
p2748
aS"=VLOOKUP(A102,'[1]201510'!$A:$AG,6,FALSE)"
p2749
aS"=VLOOKUP(A102,'[1]201510'!$A:$U,7,FALSE)"
p2750
aS"=VLOOKUP(A102,'[1]201510'!$A:$R,8,FALSE)"
p2751
aS"=-VLOOKUP(A102,'[1]201510'!$A:$Y,10,FALSE)/8"
p2752
aS'=N102+O102'
p2753
aS'=COUNTIFS(record!B:B,report!B102,record!K:K,"late1")'
p2754
aS'=COUNTIFS(record!B:B,report!B102,record!K:K,"late2")'
p2755
aS'=COUNTIFS(record!B:B,report!B102,record!K:K,"late3")'
p2756
aS'=IF(AND(E102="FTE",F102<>$F$2,G102=MAX(G:G),L102=0,M102=0,Q102<=5,R102=0,S102=0,T102=0,V102=0),"Y","N")'
p2757
aV=COUNTIFS(record!B:B,report!B102,record!K:K,"\u65f7\u5de5\u534a\u5929")/2+COUNTIFS(record!B:B,report!B102,record!K:K,"\u65f7\u5de5")
p2758
aS'=V102'
p2759
aNaS"=VLOOKUP(A102,'[1]Annual Leave'!$A:$O,15,FALSE)"
p2760
aS'=SUMIF(record!B:B,report!B102,record!M:M)'
p2761
aS'=SUMIF(record!B:B,report!B102,record!O:O)'
p2762
aS'=SUMIF(record!B:B,report!B102,record!N:N)'
p2763
aS'=SUMIF(record!B:B,report!B102,record!P:P)'
p2764
aS'=VLOOKUP(A102,[2]Report!$A:$AA,27,FALSE)'
p2765
aV1184
p2766
aa(lp2767
VAE1790
p2768
aV\u674e\u535a\u6587
p2769
aVLi Bowen
p2770
ag37
ag67
ag68
aL22L
aS'=G103-L103-M103'
p2771
aS'=G103-J103'
p2772
aS'=L103+M103+N103+O103+T103'
p2773
aS'=L103+M103+N103+O103+P103'
p2774
aS"=VLOOKUP(A103,'[1]201510'!$A:$S,5,FALSE)"
p2775
aS"=VLOOKUP(A103,'[1]201510'!$A:$AG,6,FALSE)"
p2776
aS"=VLOOKUP(A103,'[1]201510'!$A:$U,7,FALSE)"
p2777
aS"=VLOOKUP(A103,'[1]201510'!$A:$R,8,FALSE)"
p2778
aS"=-VLOOKUP(A103,'[1]201510'!$A:$Y,10,FALSE)/8"
p2779
aS'=N103+O103'
p2780
aS'=COUNTIFS(record!B:B,report!B103,record!K:K,"late1")'
p2781
aS'=COUNTIFS(record!B:B,report!B103,record!K:K,"late2")'
p2782
aS'=COUNTIFS(record!B:B,report!B103,record!K:K,"late3")'
p2783
aS'=IF(AND(E103="FTE",F103<>$F$2,G103=MAX(G:G),L103=0,M103=0,Q103<=5,R103=0,S103=0,T103=0,V103=0),"Y","N")'
p2784
aV=COUNTIFS(record!B:B,report!B103,record!K:K,"\u65f7\u5de5\u534a\u5929")/2+COUNTIFS(record!B:B,report!B103,record!K:K,"\u65f7\u5de5")
p2785
aS'=V103'
p2786
aNaS"=VLOOKUP(A103,'[1]Annual Leave'!$A:$O,15,FALSE)"
p2787
aS'=SUMIF(record!B:B,report!B103,record!M:M)'
p2788
aS'=SUMIF(record!B:B,report!B103,record!O:O)'
p2789
aS'=SUMIF(record!B:B,report!B103,record!N:N)'
p2790
aS'=SUMIF(record!B:B,report!B103,record!P:P)'
p2791
aS'=VLOOKUP(A103,[2]Report!$A:$AA,27,FALSE)'
p2792
aV1177
p2793
aa(lp2794
VAE1795
p2795
aV\u5510\u535a\u6587
p2796
aVTang Bowen
p2797
ag37
ag67
ag68
aL22L
aS'=G104-L104-M104'
p2798
aS'=G104-J104'
p2799
aS'=L104+M104+N104+O104+T104'
p2800
aS'=L104+M104+N104+O104+P104'
p2801
aS"=VLOOKUP(A104,'[1]201510'!$A:$S,5,FALSE)"
p2802
aS"=VLOOKUP(A104,'[1]201510'!$A:$AG,6,FALSE)"
p2803
aS"=VLOOKUP(A104,'[1]201510'!$A:$U,7,FALSE)"
p2804
aS"=VLOOKUP(A104,'[1]201510'!$A:$R,8,FALSE)"
p2805
aS"=-VLOOKUP(A104,'[1]201510'!$A:$Y,10,FALSE)/8"
p2806
aS'=N104+O104'
p2807
aS'=COUNTIFS(record!B:B,report!B104,record!K:K,"late1")'
p2808
aS'=COUNTIFS(record!B:B,report!B104,record!K:K,"late2")'
p2809
aS'=COUNTIFS(record!B:B,report!B104,record!K:K,"late3")'
p2810
aS'=IF(AND(E104="FTE",F104<>$F$2,G104=MAX(G:G),L104=0,M104=0,Q104<=5,R104=0,S104=0,T104=0,V104=0),"Y","N")'
p2811
aV=COUNTIFS(record!B:B,report!B104,record!K:K,"\u65f7\u5de5\u534a\u5929")/2+COUNTIFS(record!B:B,report!B104,record!K:K,"\u65f7\u5de5")
p2812
aS'=V104'
p2813
aNaS"=VLOOKUP(A104,'[1]Annual Leave'!$A:$O,15,FALSE)"
p2814
aS'=SUMIF(record!B:B,report!B104,record!M:M)'
p2815
aS'=SUMIF(record!B:B,report!B104,record!O:O)'
p2816
aS'=SUMIF(record!B:B,report!B104,record!N:N)'
p2817
aS'=SUMIF(record!B:B,report!B104,record!P:P)'
p2818
aS'=VLOOKUP(A104,[2]Report!$A:$AA,27,FALSE)'
p2819
aV1179
p2820
aa(lp2821
VAE1799
p2822
aV\u5434\u677e\u9716
p2823
aVWu Songlin
p2824
ag37
ag67
ag68
aL22L
aS'=G105-L105-M105'
p2825
aS'=G105-J105'
p2826
aS'=L105+M105+N105+O105+T105'
p2827
aS'=L105+M105+N105+O105+P105'
p2828
aS"=VLOOKUP(A105,'[1]201510'!$A:$S,5,FALSE)"
p2829
aS"=VLOOKUP(A105,'[1]201510'!$A:$AG,6,FALSE)"
p2830
aS"=VLOOKUP(A105,'[1]201510'!$A:$U,7,FALSE)"
p2831
aS"=VLOOKUP(A105,'[1]201510'!$A:$R,8,FALSE)"
p2832
aS"=-VLOOKUP(A105,'[1]201510'!$A:$Y,10,FALSE)/8"
p2833
aS'=N105+O105'
p2834
aS'=COUNTIFS(record!B:B,report!B105,record!K:K,"late1")'
p2835
aS'=COUNTIFS(record!B:B,report!B105,record!K:K,"late2")'
p2836
aS'=COUNTIFS(record!B:B,report!B105,record!K:K,"late3")'
p2837
aS'=IF(AND(E105="FTE",F105<>$F$2,G105=MAX(G:G),L105=0,M105=0,Q105<=5,R105=0,S105=0,T105=0,V105=0),"Y","N")'
p2838
aV=COUNTIFS(record!B:B,report!B105,record!K:K,"\u65f7\u5de5\u534a\u5929")/2+COUNTIFS(record!B:B,report!B105,record!K:K,"\u65f7\u5de5")
p2839
aS'=V105'
p2840
aNaS"=VLOOKUP(A105,'[1]Annual Leave'!$A:$O,15,FALSE)"
p2841
aS'=SUMIF(record!B:B,report!B105,record!M:M)'
p2842
aS'=SUMIF(record!B:B,report!B105,record!O:O)'
p2843
aS'=SUMIF(record!B:B,report!B105,record!N:N)'
p2844
aS'=SUMIF(record!B:B,report!B105,record!P:P)'
p2845
aS'=VLOOKUP(A105,[2]Report!$A:$AA,27,FALSE)'
p2846
aV1185
p2847
aa(lp2848
VAE1801
p2849
aV\u5f20\u9876\u5168
p2850
aVZhang Dingquan
p2851
ag37
ag67
ag68
aL22L
aS'=G106-L106-M106'
p2852
aS'=G106-J106'
p2853
aS'=L106+M106+N106+O106+T106'
p2854
aS'=L106+M106+N106+O106+P106'
p2855
aS"=VLOOKUP(A106,'[1]201510'!$A:$S,5,FALSE)"
p2856
aS"=VLOOKUP(A106,'[1]201510'!$A:$AG,6,FALSE)"
p2857
aS"=VLOOKUP(A106,'[1]201510'!$A:$U,7,FALSE)"
p2858
aS"=VLOOKUP(A106,'[1]201510'!$A:$R,8,FALSE)"
p2859
aS"=-VLOOKUP(A106,'[1]201510'!$A:$Y,10,FALSE)/8"
p2860
aS'=N106+O106'
p2861
aS'=COUNTIFS(record!B:B,report!B106,record!K:K,"late1")'
p2862
aS'=COUNTIFS(record!B:B,report!B106,record!K:K,"late2")'
p2863
aS'=COUNTIFS(record!B:B,report!B106,record!K:K,"late3")'
p2864
aS'=IF(AND(E106="FTE",F106<>$F$2,G106=MAX(G:G),L106=0,M106=0,Q106<=5,R106=0,S106=0,T106=0,V106=0),"Y","N")'
p2865
aV=COUNTIFS(record!B:B,report!B106,record!K:K,"\u65f7\u5de5\u534a\u5929")/2+COUNTIFS(record!B:B,report!B106,record!K:K,"\u65f7\u5de5")
p2866
aS'=V106'
p2867
aNaS"=VLOOKUP(A106,'[1]Annual Leave'!$A:$O,15,FALSE)"
p2868
aS'=SUMIF(record!B:B,report!B106,record!M:M)'
p2869
aS'=SUMIF(record!B:B,report!B106,record!O:O)'
p2870
aS'=SUMIF(record!B:B,report!B106,record!N:N)'
p2871
aS'=SUMIF(record!B:B,report!B106,record!P:P)'
p2872
aS'=VLOOKUP(A106,[2]Report!$A:$AA,27,FALSE)'
p2873
aV1186
p2874
aa(lp2875
VAE1809
p2876
aV\u9c81\u5ead
p2877
aVKayla Lu Ting
p2878
ag37
ag96
ag68
aL22L
aS'=G107-L107-M107'
p2879
aS'=G107-J107'
p2880
aS'=L107+M107+N107+O107+T107'
p2881
aS'=L107+M107+N107+O107+P107'
p2882
aS"=VLOOKUP(A107,'[1]201510'!$A:$S,5,FALSE)"
p2883
aS"=VLOOKUP(A107,'[1]201510'!$A:$AG,6,FALSE)"
p2884
aS"=VLOOKUP(A107,'[1]201510'!$A:$U,7,FALSE)"
p2885
aS"=VLOOKUP(A107,'[1]201510'!$A:$R,8,FALSE)"
p2886
aS"=-VLOOKUP(A107,'[1]201510'!$A:$Y,10,FALSE)/8"
p2887
aS'=N107+O107'
p2888
aS'=COUNTIFS(record!B:B,report!B107,record!K:K,"late1")'
p2889
aS'=COUNTIFS(record!B:B,report!B107,record!K:K,"late2")'
p2890
aS'=COUNTIFS(record!B:B,report!B107,record!K:K,"late3")'
p2891
aS'=IF(AND(E107="FTE",F107<>$F$2,G107=MAX(G:G),L107=0,M107=0,Q107<=5,R107=0,S107=0,T107=0,V107=0),"Y","N")'
p2892
aV=COUNTIFS(record!B:B,report!B107,record!K:K,"\u65f7\u5de5\u534a\u5929")/2+COUNTIFS(record!B:B,report!B107,record!K:K,"\u65f7\u5de5")
p2893
aS'=V107'
p2894
aNaS"=VLOOKUP(A107,'[1]Annual Leave'!$A:$O,15,FALSE)"
p2895
aS'=SUMIF(record!B:B,report!B107,record!M:M)'
p2896
aS'=SUMIF(record!B:B,report!B107,record!O:O)'
p2897
aS'=SUMIF(record!B:B,report!B107,record!N:N)'
p2898
aS'=SUMIF(record!B:B,report!B107,record!P:P)'
p2899
aS'=VLOOKUP(A107,[2]Report!$A:$AA,27,FALSE)'
p2900
aV1169
p2901
aa(lp2902
VAE1812
p2903
aV\u7a0b\u6c5f
p2904
aVCheng Jiang
p2905
ag37
ag67
ag68
aL22L
aS'=G108-L108-M108'
p2906
aS'=G108-J108'
p2907
aS'=L108+M108+N108+O108+T108'
p2908
aS'=L108+M108+N108+O108+P108'
p2909
aS"=VLOOKUP(A108,'[1]201510'!$A:$S,5,FALSE)"
p2910
aS"=VLOOKUP(A108,'[1]201510'!$A:$AG,6,FALSE)"
p2911
aS"=VLOOKUP(A108,'[1]201510'!$A:$U,7,FALSE)"
p2912
aS"=VLOOKUP(A108,'[1]201510'!$A:$R,8,FALSE)"
p2913
aS"=-VLOOKUP(A108,'[1]201510'!$A:$Y,10,FALSE)/8"
p2914
aS'=N108+O108'
p2915
aS'=COUNTIFS(record!B:B,report!B108,record!K:K,"late1")'
p2916
aS'=COUNTIFS(record!B:B,report!B108,record!K:K,"late2")'
p2917
aS'=COUNTIFS(record!B:B,report!B108,record!K:K,"late3")'
p2918
aS'=IF(AND(E108="FTE",F108<>$F$2,G108=MAX(G:G),L108=0,M108=0,Q108<=5,R108=0,S108=0,T108=0,V108=0),"Y","N")'
p2919
aV=COUNTIFS(record!B:B,report!B108,record!K:K,"\u65f7\u5de5\u534a\u5929")/2+COUNTIFS(record!B:B,report!B108,record!K:K,"\u65f7\u5de5")
p2920
aS'=V108'
p2921
aNaS"=VLOOKUP(A108,'[1]Annual Leave'!$A:$O,15,FALSE)"
p2922
aS'=SUMIF(record!B:B,report!B108,record!M:M)'
p2923
aS'=SUMIF(record!B:B,report!B108,record!O:O)'
p2924
aS'=SUMIF(record!B:B,report!B108,record!N:N)'
p2925
aS'=SUMIF(record!B:B,report!B108,record!P:P)'
p2926
aS'=VLOOKUP(A108,[2]Report!$A:$AA,27,FALSE)'
p2927
aV1170
p2928
aa(lp2929
VAE1815
p2930
aV\u674e\u6167
p2931
aVKaren Li Hui
p2932
ag37
ag96
ag68
aL22L
aS'=G109-L109-M109'
p2933
aS'=G109-J109'
p2934
aS'=L109+M109+N109+O109+T109'
p2935
aS'=L109+M109+N109+O109+P109'
p2936
aS"=VLOOKUP(A109,'[1]201510'!$A:$S,5,FALSE)"
p2937
aS"=VLOOKUP(A109,'[1]201510'!$A:$AG,6,FALSE)"
p2938
aS"=VLOOKUP(A109,'[1]201510'!$A:$U,7,FALSE)"
p2939
aS"=VLOOKUP(A109,'[1]201510'!$A:$R,8,FALSE)"
p2940
aS"=-VLOOKUP(A109,'[1]201510'!$A:$Y,10,FALSE)/8"
p2941
aS'=N109+O109'
p2942
aS'=COUNTIFS(record!B:B,report!B109,record!K:K,"late1")'
p2943
aS'=COUNTIFS(record!B:B,report!B109,record!K:K,"late2")'
p2944
aS'=COUNTIFS(record!B:B,report!B109,record!K:K,"late3")'
p2945
aS'=IF(AND(E109="FTE",F109<>$F$2,G109=MAX(G:G),L109=0,M109=0,Q109<=5,R109=0,S109=0,T109=0,V109=0),"Y","N")'
p2946
aV=COUNTIFS(record!B:B,report!B109,record!K:K,"\u65f7\u5de5\u534a\u5929")/2+COUNTIFS(record!B:B,report!B109,record!K:K,"\u65f7\u5de5")
p2947
aS'=V109'
p2948
aNaS"=VLOOKUP(A109,'[1]Annual Leave'!$A:$O,15,FALSE)"
p2949
aS'=SUMIF(record!B:B,report!B109,record!M:M)'
p2950
aS'=SUMIF(record!B:B,report!B109,record!O:O)'
p2951
aS'=SUMIF(record!B:B,report!B109,record!N:N)'
p2952
aS'=SUMIF(record!B:B,report!B109,record!P:P)'
p2953
aS'=VLOOKUP(A109,[2]Report!$A:$AA,27,FALSE)'
p2954
aV1219
p2955
aa(lp2956
VAE1816
p2957
aV\u51af\u7433\u829d
p2958
aVFeng Linzhi
p2959
ag37
aVOutsourcing
p2960
ag68
aL22L
aS'=G110-L110-M110'
p2961
aS'=G110-J110'
p2962
aS'=L110+M110+N110+O110+T110'
p2963
aS'=L110+M110+N110+O110+P110'
p2964
aS"=VLOOKUP(A110,'[1]201510'!$A:$S,5,FALSE)"
p2965
aS"=VLOOKUP(A110,'[1]201510'!$A:$AG,6,FALSE)"
p2966
aS"=VLOOKUP(A110,'[1]201510'!$A:$U,7,FALSE)"
p2967
aS"=VLOOKUP(A110,'[1]201510'!$A:$R,8,FALSE)"
p2968
aS"=-VLOOKUP(A110,'[1]201510'!$A:$Y,10,FALSE)/8"
p2969
aS'=N110+O110'
p2970
aS'=COUNTIFS(record!B:B,report!B110,record!K:K,"late1")'
p2971
aS'=COUNTIFS(record!B:B,report!B110,record!K:K,"late2")'
p2972
aS'=COUNTIFS(record!B:B,report!B110,record!K:K,"late3")'
p2973
aS'=IF(AND(E110="FTE",F110<>$F$2,G110=MAX(G:G),L110=0,M110=0,Q110<=5,R110=0,S110=0,T110=0,V110=0),"Y","N")'
p2974
aV=COUNTIFS(record!B:B,report!B110,record!K:K,"\u65f7\u5de5\u534a\u5929")/2+COUNTIFS(record!B:B,report!B110,record!K:K,"\u65f7\u5de5")
p2975
aS'=V110'
p2976
aNaS"=VLOOKUP(A110,'[1]Annual Leave'!$A:$O,15,FALSE)"
p2977
aS'=SUMIF(record!B:B,report!B110,record!M:M)'
p2978
aS'=SUMIF(record!B:B,report!B110,record!O:O)'
p2979
aS'=SUMIF(record!B:B,report!B110,record!N:N)'
p2980
aS'=SUMIF(record!B:B,report!B110,record!P:P)'
p2981
aNaV1172
p2982
aa(lp2983
VAE1817
p2984
aV\u7530\u4e54
p2985
aVTian Qiao
p2986
ag37
ag96
ag97
aL22L
aS'=G111-L111-M111'
p2987
aS'=G111-J111'
p2988
aS'=L111+M111+N111+O111+T111'
p2989
aS'=L111+M111+N111+O111+P111'
p2990
aS"=VLOOKUP(A111,'[1]201510'!$A:$S,5,FALSE)"
p2991
aS"=VLOOKUP(A111,'[1]201510'!$A:$AG,6,FALSE)"
p2992
aS"=VLOOKUP(A111,'[1]201510'!$A:$U,7,FALSE)"
p2993
aS"=VLOOKUP(A111,'[1]201510'!$A:$R,8,FALSE)"
p2994
aS"=-VLOOKUP(A111,'[1]201510'!$A:$Y,10,FALSE)/8"
p2995
aS'=N111+O111'
p2996
aS'=COUNTIFS(record!B:B,report!B111,record!K:K,"late1")'
p2997
aS'=COUNTIFS(record!B:B,report!B111,record!K:K,"late2")'
p2998
aS'=COUNTIFS(record!B:B,report!B111,record!K:K,"late3")'
p2999
aS'=IF(AND(E111="FTE",F111<>$F$2,G111=MAX(G:G),L111=0,M111=0,Q111<=5,R111=0,S111=0,T111=0,V111=0),"Y","N")'
p3000
aV=COUNTIFS(record!B:B,report!B111,record!K:K,"\u65f7\u5de5\u534a\u5929")/2+COUNTIFS(record!B:B,report!B111,record!K:K,"\u65f7\u5de5")
p3001
aS'=V111'
p3002
aNaS"=VLOOKUP(A111,'[1]Annual Leave'!$A:$O,15,FALSE)"
p3003
aS'=SUMIF(record!B:B,report!B111,record!M:M)'
p3004
aS'=SUMIF(record!B:B,report!B111,record!O:O)'
p3005
aS'=SUMIF(record!B:B,report!B111,record!N:N)'
p3006
aS'=SUMIF(record!B:B,report!B111,record!P:P)'
p3007
aS'=VLOOKUP(A111,[2]Report!$A:$AA,27,FALSE)'
p3008
aV1173
p3009
aa(lp3010
VAE1819
p3011
aV\u8463\u6021
p3012
aVDong Yi
p3013
ag37
ag96
ag68
aL22L
aS'=G112-L112-M112'
p3014
aS'=G112-J112'
p3015
aS'=L112+M112+N112+O112+T112'
p3016
aS'=L112+M112+N112+O112+P112'
p3017
aS"=VLOOKUP(A112,'[1]201510'!$A:$S,5,FALSE)"
p3018
aS"=VLOOKUP(A112,'[1]201510'!$A:$AG,6,FALSE)"
p3019
aS"=VLOOKUP(A112,'[1]201510'!$A:$U,7,FALSE)"
p3020
aS"=VLOOKUP(A112,'[1]201510'!$A:$R,8,FALSE)"
p3021
aS"=-VLOOKUP(A112,'[1]201510'!$A:$Y,10,FALSE)/8"
p3022
aS'=N112+O112'
p3023
aS'=COUNTIFS(record!B:B,report!B112,record!K:K,"late1")'
p3024
aS'=COUNTIFS(record!B:B,report!B112,record!K:K,"late2")'
p3025
aS'=COUNTIFS(record!B:B,report!B112,record!K:K,"late3")'
p3026
aS'=IF(AND(E112="FTE",F112<>$F$2,G112=MAX(G:G),L112=0,M112=0,Q112<=5,R112=0,S112=0,T112=0,V112=0),"Y","N")'
p3027
aV=COUNTIFS(record!B:B,report!B112,record!K:K,"\u65f7\u5de5\u534a\u5929")/2+COUNTIFS(record!B:B,report!B112,record!K:K,"\u65f7\u5de5")
p3028
aS'=V112'
p3029
ag2168
aS"=VLOOKUP(A112,'[1]Annual Leave'!$A:$O,15,FALSE)"
p3030
aS'=SUMIF(record!B:B,report!B112,record!M:M)'
p3031
aS'=SUMIF(record!B:B,report!B112,record!O:O)'
p3032
aS'=SUMIF(record!B:B,report!B112,record!N:N)'
p3033
aS'=SUMIF(record!B:B,report!B112,record!P:P)'
p3034
aS'=VLOOKUP(A112,[2]Report!$A:$AA,27,FALSE)'
p3035
aV1192
p3036
aa(lp3037
VAE1823
p3038
aV\u5218\u9896\u5982
p3039
aNag37
ag96
ag68
aL22L
aS'=G113-L113-M113'
p3040
aS'=G113-J113'
p3041
aS'=L113+M113+N113+O113+T113'
p3042
aS'=L113+M113+N113+O113+P113'
p3043
aS"=VLOOKUP(A113,'[1]201510'!$A:$S,5,FALSE)"
p3044
aS"=VLOOKUP(A113,'[1]201510'!$A:$AG,6,FALSE)"
p3045
aS"=VLOOKUP(A113,'[1]201510'!$A:$U,7,FALSE)"
p3046
aS"=VLOOKUP(A113,'[1]201510'!$A:$R,8,FALSE)"
p3047
aS"=-VLOOKUP(A113,'[1]201510'!$A:$Y,10,FALSE)/8"
p3048
aS'=N113+O113'
p3049
aS'=COUNTIFS(record!B:B,report!B113,record!K:K,"late1")'
p3050
aS'=COUNTIFS(record!B:B,report!B113,record!K:K,"late2")'
p3051
aS'=COUNTIFS(record!B:B,report!B113,record!K:K,"late3")'
p3052
aS'=IF(AND(E113="FTE",F113<>$F$2,G113=MAX(G:G),L113=0,M113=0,Q113<=5,R113=0,S113=0,T113=0,V113=0),"Y","N")'
p3053
aV=COUNTIFS(record!B:B,report!B113,record!K:K,"\u65f7\u5de5\u534a\u5929")/2+COUNTIFS(record!B:B,report!B113,record!K:K,"\u65f7\u5de5")
p3054
aS'=V113'
p3055
aNaS"=VLOOKUP(A113,'[1]Annual Leave'!$A:$O,15,FALSE)"
p3056
aS'=SUMIF(record!B:B,report!B113,record!M:M)'
p3057
aS'=SUMIF(record!B:B,report!B113,record!O:O)'
p3058
aS'=SUMIF(record!B:B,report!B113,record!N:N)'
p3059
aS'=SUMIF(record!B:B,report!B113,record!P:P)'
p3060
aS'=VLOOKUP(A113,[2]Report!$A:$AA,27,FALSE)'
p3061
aV1193
p3062
aa(lp3063
VAE1828
p3064
aV\u5f90\u6653\u9f99
p3065
aVXu Xiaolong
p3066
aVOn the Job \u5728\u804c
p3067
ag96
ag97
aL22L
aS'=G114-L114-M114'
p3068
aS'=G114-J114'
p3069
aS'=L114+M114+N114+O114+T114'
p3070
aS'=L114+M114+N114+O114+P114'
p3071
aS"=VLOOKUP(A114,'[1]201510'!$A:$S,5,FALSE)"
p3072
aS"=VLOOKUP(A114,'[1]201510'!$A:$AG,6,FALSE)"
p3073
aS"=VLOOKUP(A114,'[1]201510'!$A:$U,7,FALSE)"
p3074
aS"=VLOOKUP(A114,'[1]201510'!$A:$R,8,FALSE)"
p3075
aS"=-VLOOKUP(A114,'[1]201510'!$A:$Y,10,FALSE)/8"
p3076
aS'=N114+O114'
p3077
aS'=COUNTIFS(record!B:B,report!B114,record!K:K,"late1")'
p3078
aS'=COUNTIFS(record!B:B,report!B114,record!K:K,"late2")'
p3079
aS'=COUNTIFS(record!B:B,report!B114,record!K:K,"late3")'
p3080
aS'=IF(AND(E114="FTE",F114<>$F$2,G114=MAX(G:G),L114=0,M114=0,Q114<=5,R114=0,S114=0,T114=0,V114=0),"Y","N")'
p3081
aV=COUNTIFS(record!B:B,report!B114,record!K:K,"\u65f7\u5de5\u534a\u5929")/2+COUNTIFS(record!B:B,report!B114,record!K:K,"\u65f7\u5de5")
p3082
aS'=V114'
p3083
aNaS"=VLOOKUP(A114,'[1]Annual Leave'!$A:$O,15,FALSE)"
p3084
aS'=SUMIF(record!B:B,report!B114,record!M:M)'
p3085
aS'=SUMIF(record!B:B,report!B114,record!O:O)'
p3086
aS'=SUMIF(record!B:B,report!B114,record!N:N)'
p3087
aS'=SUMIF(record!B:B,report!B114,record!P:P)'
p3088
aVxuxiaolong@smalltreemedia.com
p3089
aV1198
p3090
aa(lp3091
VAE1829
p3092
aV\u674e\u65e5\u5f3a
p3093
aVLi Riqiang
p3094
ag3067
ag96
ag68
aL22L
aS'=G115-L115-M115'
p3095
aS'=G115-J115'
p3096
aS'=L115+M115+N115+O115+T115'
p3097
aS'=L115+M115+N115+O115+P115'
p3098
aS"=VLOOKUP(A115,'[1]201510'!$A:$S,5,FALSE)"
p3099
aS"=VLOOKUP(A115,'[1]201510'!$A:$AG,6,FALSE)"
p3100
aS"=VLOOKUP(A115,'[1]201510'!$A:$U,7,FALSE)"
p3101
aS"=VLOOKUP(A115,'[1]201510'!$A:$R,8,FALSE)"
p3102
aS"=-VLOOKUP(A115,'[1]201510'!$A:$Y,10,FALSE)/8"
p3103
aS'=N115+O115'
p3104
aS'=COUNTIFS(record!B:B,report!B115,record!K:K,"late1")'
p3105
aS'=COUNTIFS(record!B:B,report!B115,record!K:K,"late2")'
p3106
aS'=COUNTIFS(record!B:B,report!B115,record!K:K,"late3")'
p3107
aS'=IF(AND(E115="FTE",F115<>$F$2,G115=MAX(G:G),L115=0,M115=0,Q115<=5,R115=0,S115=0,T115=0,V115=0),"Y","N")'
p3108
aV=COUNTIFS(record!B:B,report!B115,record!K:K,"\u65f7\u5de5\u534a\u5929")/2+COUNTIFS(record!B:B,report!B115,record!K:K,"\u65f7\u5de5")
p3109
aS'=V115'
p3110
aNaS"=VLOOKUP(A115,'[1]Annual Leave'!$A:$O,15,FALSE)"
p3111
aS'=SUMIF(record!B:B,report!B115,record!M:M)'
p3112
aS'=SUMIF(record!B:B,report!B115,record!O:O)'
p3113
aS'=SUMIF(record!B:B,report!B115,record!N:N)'
p3114
aS'=SUMIF(record!B:B,report!B115,record!P:P)'
p3115
aVliriqiang@smalltreemedia.com
p3116
aV1199
p3117
aa(lp3118
VAE1831
p3119
aV\u5415\u9676\u7136
p3120
aVTara Lv Taoran
p3121
ag3067
ag96
ag68
aL22L
aS'=G116-L116-M116'
p3122
aS'=G116-J116'
p3123
aS'=L116+M116+N116+O116+T116'
p3124
aS'=L116+M116+N116+O116+P116'
p3125
aS"=VLOOKUP(A116,'[1]201510'!$A:$S,5,FALSE)"
p3126
aS"=VLOOKUP(A116,'[1]201510'!$A:$AG,6,FALSE)"
p3127
aS"=VLOOKUP(A116,'[1]201510'!$A:$U,7,FALSE)"
p3128
aS"=VLOOKUP(A116,'[1]201510'!$A:$R,8,FALSE)"
p3129
aS"=-VLOOKUP(A116,'[1]201510'!$A:$Y,10,FALSE)/8"
p3130
aS'=N116+O116'
p3131
aS'=COUNTIFS(record!B:B,report!B116,record!K:K,"late1")'
p3132
aS'=COUNTIFS(record!B:B,report!B116,record!K:K,"late2")'
p3133
aS'=COUNTIFS(record!B:B,report!B116,record!K:K,"late3")'
p3134
aS'=IF(AND(E116="FTE",F116<>$F$2,G116=MAX(G:G),L116=0,M116=0,Q116<=5,R116=0,S116=0,T116=0,V116=0),"Y","N")'
p3135
aV=COUNTIFS(record!B:B,report!B116,record!K:K,"\u65f7\u5de5\u534a\u5929")/2+COUNTIFS(record!B:B,report!B116,record!K:K,"\u65f7\u5de5")
p3136
aS'=V116'
p3137
aNaS"=VLOOKUP(A116,'[1]Annual Leave'!$A:$O,15,FALSE)"
p3138
aS'=SUMIF(record!B:B,report!B116,record!M:M)'
p3139
aS'=SUMIF(record!B:B,report!B116,record!O:O)'
p3140
aS'=SUMIF(record!B:B,report!B116,record!N:N)'
p3141
aS'=SUMIF(record!B:B,report!B116,record!P:P)'
p3142
aVtara.lv@smalltreemedia.com
p3143
aV1201
p3144
aa(lp3145
VAE1832
p3146
aV\u80e1\u5170
p3147
aVJessica Hu Lan
p3148
ag3067
ag96
ag68
aL22L
aS'=G117-L117-M117'
p3149
aS'=G117-J117'
p3150
aS'=L117+M117+N117+O117+T117'
p3151
aS'=L117+M117+N117+O117+P117'
p3152
aS"=VLOOKUP(A117,'[1]201510'!$A:$S,5,FALSE)"
p3153
aS"=VLOOKUP(A117,'[1]201510'!$A:$AG,6,FALSE)"
p3154
aS"=VLOOKUP(A117,'[1]201510'!$A:$U,7,FALSE)"
p3155
aS"=VLOOKUP(A117,'[1]201510'!$A:$R,8,FALSE)"
p3156
aS"=-VLOOKUP(A117,'[1]201510'!$A:$Y,10,FALSE)/8"
p3157
aS'=N117+O117'
p3158
aS'=COUNTIFS(record!B:B,report!B117,record!K:K,"late1")'
p3159
aS'=COUNTIFS(record!B:B,report!B117,record!K:K,"late2")'
p3160
aS'=COUNTIFS(record!B:B,report!B117,record!K:K,"late3")'
p3161
aS'=IF(AND(E117="FTE",F117<>$F$2,G117=MAX(G:G),L117=0,M117=0,Q117<=5,R117=0,S117=0,T117=0,V117=0),"Y","N")'
p3162
aV=COUNTIFS(record!B:B,report!B117,record!K:K,"\u65f7\u5de5\u534a\u5929")/2+COUNTIFS(record!B:B,report!B117,record!K:K,"\u65f7\u5de5")
p3163
aS'=V117'
p3164
aNaS"=VLOOKUP(A117,'[1]Annual Leave'!$A:$O,15,FALSE)"
p3165
aS'=SUMIF(record!B:B,report!B117,record!M:M)'
p3166
aS'=SUMIF(record!B:B,report!B117,record!O:O)'
p3167
aS'=SUMIF(record!B:B,report!B117,record!N:N)'
p3168
aS'=SUMIF(record!B:B,report!B117,record!P:P)'
p3169
aVjessica.hu@mokitech.com
p3170
aV1204
p3171
aa(lp3172
VAE1833
p3173
aV\u9648\u963f\u8f69
p3174
aVIris Chen Axuan
p3175
ag3067
ag96
ag68
aL22L
aS'=G118-L118-M118'
p3176
aS'=G118-J118'
p3177
aS'=L118+M118+N118+O118+T118'
p3178
aS'=L118+M118+N118+O118+P118'
p3179
aS"=VLOOKUP(A118,'[1]201510'!$A:$S,5,FALSE)"
p3180
aS"=VLOOKUP(A118,'[1]201510'!$A:$AG,6,FALSE)"
p3181
aS"=VLOOKUP(A118,'[1]201510'!$A:$U,7,FALSE)"
p3182
aS"=VLOOKUP(A118,'[1]201510'!$A:$R,8,FALSE)"
p3183
aS"=-VLOOKUP(A118,'[1]201510'!$A:$Y,10,FALSE)/8"
p3184
aS'=N118+O118'
p3185
aS'=COUNTIFS(record!B:B,report!B118,record!K:K,"late1")'
p3186
aS'=COUNTIFS(record!B:B,report!B118,record!K:K,"late2")'
p3187
aS'=COUNTIFS(record!B:B,report!B118,record!K:K,"late3")'
p3188
aS'=IF(AND(E118="FTE",F118<>$F$2,G118=MAX(G:G),L118=0,M118=0,Q118<=5,R118=0,S118=0,T118=0,V118=0),"Y","N")'
p3189
aV=COUNTIFS(record!B:B,report!B118,record!K:K,"\u65f7\u5de5\u534a\u5929")/2+COUNTIFS(record!B:B,report!B118,record!K:K,"\u65f7\u5de5")
p3190
aS'=V118'
p3191
aNaS"=VLOOKUP(A118,'[1]Annual Leave'!$A:$O,15,FALSE)"
p3192
aS'=SUMIF(record!B:B,report!B118,record!M:M)'
p3193
aS'=SUMIF(record!B:B,report!B118,record!O:O)'
p3194
aS'=SUMIF(record!B:B,report!B118,record!N:N)'
p3195
aS'=SUMIF(record!B:B,report!B118,record!P:P)'
p3196
aVchenaxuan@smalltreemedia.com
p3197
aV1205
p3198
aa(lp3199
VAE1834
p3200
aV\u8881\u9633
p3201
aVHedy Yuan Yang 
p3202
ag3067
ag96
ag68
aL22L
aS'=G119-L119-M119'
p3203
aS'=G119-J119'
p3204
aS'=L119+M119+N119+O119+T119'
p3205
aS'=L119+M119+N119+O119+P119'
p3206
aS"=VLOOKUP(A119,'[1]201510'!$A:$S,5,FALSE)"
p3207
aS"=VLOOKUP(A119,'[1]201510'!$A:$AG,6,FALSE)"
p3208
aS"=VLOOKUP(A119,'[1]201510'!$A:$U,7,FALSE)"
p3209
aS"=VLOOKUP(A119,'[1]201510'!$A:$R,8,FALSE)"
p3210
aS"=-VLOOKUP(A119,'[1]201510'!$A:$Y,10,FALSE)/8"
p3211
aS'=N119+O119'
p3212
aS'=COUNTIFS(record!B:B,report!B119,record!K:K,"late1")'
p3213
aS'=COUNTIFS(record!B:B,report!B119,record!K:K,"late2")'
p3214
aS'=COUNTIFS(record!B:B,report!B119,record!K:K,"late3")'
p3215
aS'=IF(AND(E119="FTE",F119<>$F$2,G119=MAX(G:G),L119=0,M119=0,Q119<=5,R119=0,S119=0,T119=0,V119=0),"Y","N")'
p3216
aV=COUNTIFS(record!B:B,report!B119,record!K:K,"\u65f7\u5de5\u534a\u5929")/2+COUNTIFS(record!B:B,report!B119,record!K:K,"\u65f7\u5de5")
p3217
aS'=V119'
p3218
aNaS"=VLOOKUP(A119,'[1]Annual Leave'!$A:$O,15,FALSE)"
p3219
aS'=SUMIF(record!B:B,report!B119,record!M:M)'
p3220
aS'=SUMIF(record!B:B,report!B119,record!O:O)'
p3221
aS'=SUMIF(record!B:B,report!B119,record!N:N)'
p3222
aS'=SUMIF(record!B:B,report!B119,record!P:P)'
p3223
aVyuanyang@smalltreemedia.com
p3224
aV1208
p3225
aa(lp3226
VAE1835
p3227
aV\u82cf\u5029
p3228
aVSabrina Su Qian
p3229
ag3067
ag96
ag97
aL22L
aS'=G120-L120-M120'
p3230
aS'=G120-J120'
p3231
aS'=L120+M120+N120+O120+T120'
p3232
aS'=L120+M120+N120+O120+P120'
p3233
aS"=VLOOKUP(A120,'[1]201510'!$A:$S,5,FALSE)"
p3234
aS"=VLOOKUP(A120,'[1]201510'!$A:$AG,6,FALSE)"
p3235
aS"=VLOOKUP(A120,'[1]201510'!$A:$U,7,FALSE)"
p3236
aS"=VLOOKUP(A120,'[1]201510'!$A:$R,8,FALSE)"
p3237
aS"=-VLOOKUP(A120,'[1]201510'!$A:$Y,10,FALSE)/8"
p3238
aS'=N120+O120'
p3239
aS'=COUNTIFS(record!B:B,report!B120,record!K:K,"late1")'
p3240
aS'=COUNTIFS(record!B:B,report!B120,record!K:K,"late2")'
p3241
aS'=COUNTIFS(record!B:B,report!B120,record!K:K,"late3")'
p3242
aS'=IF(AND(E120="FTE",F120<>$F$2,G120=MAX(G:G),L120=0,M120=0,Q120<=5,R120=0,S120=0,T120=0,V120=0),"Y","N")'
p3243
aV=COUNTIFS(record!B:B,report!B120,record!K:K,"\u65f7\u5de5\u534a\u5929")/2+COUNTIFS(record!B:B,report!B120,record!K:K,"\u65f7\u5de5")
p3244
aS'=V120'
p3245
aNaS"=VLOOKUP(A120,'[1]Annual Leave'!$A:$O,15,FALSE)"
p3246
aS'=SUMIF(record!B:B,report!B120,record!M:M)'
p3247
aS'=SUMIF(record!B:B,report!B120,record!O:O)'
p3248
aS'=SUMIF(record!B:B,report!B120,record!N:N)'
p3249
aS'=SUMIF(record!B:B,report!B120,record!P:P)'
p3250
aVsabrina.su@smalltreemedia.com
p3251
aV1209
p3252
aa(lp3253
VAE1811
p3254
aV\u7531\u6d9b
p3255
aVYou Tao
p3256
ag3067
ag67
ag68
aL22L
aS'=G121-L121-M121'
p3257
aS'=G121-J121'
p3258
aS'=L121+M121+N121+O121+T121'
p3259
aS'=L121+M121+N121+O121+P121'
p3260
aS"=VLOOKUP(A121,'[1]201510'!$A:$S,5,FALSE)"
p3261
aS"=VLOOKUP(A121,'[1]201510'!$A:$AG,6,FALSE)"
p3262
aS"=VLOOKUP(A121,'[1]201510'!$A:$U,7,FALSE)"
p3263
aS"=VLOOKUP(A121,'[1]201510'!$A:$R,8,FALSE)"
p3264
aS"=-VLOOKUP(A121,'[1]201510'!$A:$Y,10,FALSE)/8"
p3265
aS'=N121+O121'
p3266
aS'=COUNTIFS(record!B:B,report!B121,record!K:K,"late1")'
p3267
aS'=COUNTIFS(record!B:B,report!B121,record!K:K,"late2")'
p3268
aS'=COUNTIFS(record!B:B,report!B121,record!K:K,"late3")'
p3269
aS'=IF(AND(E121="FTE",F121<>$F$2,G121=MAX(G:G),L121=0,M121=0,Q121<=5,R121=0,S121=0,T121=0,V121=0),"Y","N")'
p3270
aV=COUNTIFS(record!B:B,report!B121,record!K:K,"\u65f7\u5de5\u534a\u5929")/2+COUNTIFS(record!B:B,report!B121,record!K:K,"\u65f7\u5de5")
p3271
aS'=V121'
p3272
aNaS"=VLOOKUP(A121,'[1]Annual Leave'!$A:$O,15,FALSE)"
p3273
aS'=SUMIF(record!B:B,report!B121,record!M:M)'
p3274
aS'=SUMIF(record!B:B,report!B121,record!O:O)'
p3275
aS'=SUMIF(record!B:B,report!B121,record!N:N)'
p3276
aS'=SUMIF(record!B:B,report!B121,record!P:P)'
p3277
aVyoutao@smalltreemedia.com
p3278
aV1202
p3279
aa(lp3280
VAE1837
p3281
aV\u7f57\u6653\u9e4f
p3282
aVLuo Xiaopeng
p3283
ag3067
ag96
ag68
aL22L
aS'=G122-L122-M122'
p3284
aS'=G122-J122'
p3285
aS'=L122+M122+N122+O122+T122'
p3286
aS'=L122+M122+N122+O122+P122'
p3287
aS"=VLOOKUP(A122,'[1]201510'!$A:$S,5,FALSE)"
p3288
aS"=VLOOKUP(A122,'[1]201510'!$A:$AG,6,FALSE)"
p3289
aS"=VLOOKUP(A122,'[1]201510'!$A:$U,7,FALSE)"
p3290
aS"=VLOOKUP(A122,'[1]201510'!$A:$R,8,FALSE)"
p3291
aS"=-VLOOKUP(A122,'[1]201510'!$A:$Y,10,FALSE)/8"
p3292
aS'=N122+O122'
p3293
aS'=COUNTIFS(record!B:B,report!B122,record!K:K,"late1")'
p3294
aS'=COUNTIFS(record!B:B,report!B122,record!K:K,"late2")'
p3295
aS'=COUNTIFS(record!B:B,report!B122,record!K:K,"late3")'
p3296
aS'=IF(AND(E122="FTE",F122<>$F$2,G122=MAX(G:G),L122=0,M122=0,Q122<=5,R122=0,S122=0,T122=0,V122=0),"Y","N")'
p3297
aV=COUNTIFS(record!B:B,report!B122,record!K:K,"\u65f7\u5de5\u534a\u5929")/2+COUNTIFS(record!B:B,report!B122,record!K:K,"\u65f7\u5de5")
p3298
aS'=V122'
p3299
aNaS"=VLOOKUP(A122,'[1]Annual Leave'!$A:$O,15,FALSE)"
p3300
aS'=SUMIF(record!B:B,report!B122,record!M:M)'
p3301
aS'=SUMIF(record!B:B,report!B122,record!O:O)'
p3302
aS'=SUMIF(record!B:B,report!B122,record!N:N)'
p3303
aS'=SUMIF(record!B:B,report!B122,record!P:P)'
p3304
aVluoxiaopeng@smalltreemedia.com
p3305
aV1220
p3306
aa(lp3307
VAE1839
p3308
aV\u7b80\u5a77\u5a77
p3309
aVJune Jian Tingting
p3310
ag3067
ag96
ag68
aL22L
aS'=G123-L123-M123'
p3311
aS'=G123-J123'
p3312
aS'=L123+M123+N123+O123+T123'
p3313
aS'=L123+M123+N123+O123+P123'
p3314
aS"=VLOOKUP(A123,'[1]201510'!$A:$S,5,FALSE)"
p3315
aS"=VLOOKUP(A123,'[1]201510'!$A:$AG,6,FALSE)"
p3316
aS"=VLOOKUP(A123,'[1]201510'!$A:$U,7,FALSE)"
p3317
aS"=VLOOKUP(A123,'[1]201510'!$A:$R,8,FALSE)"
p3318
aS"=-VLOOKUP(A123,'[1]201510'!$A:$Y,10,FALSE)/8"
p3319
aS'=N123+O123'
p3320
aS'=COUNTIFS(record!B:B,report!B123,record!K:K,"late1")'
p3321
aS'=COUNTIFS(record!B:B,report!B123,record!K:K,"late2")'
p3322
aS'=COUNTIFS(record!B:B,report!B123,record!K:K,"late3")'
p3323
aS'=IF(AND(E123="FTE",F123<>$F$2,G123=MAX(G:G),L123=0,M123=0,Q123<=5,R123=0,S123=0,T123=0,V123=0),"Y","N")'
p3324
aV=COUNTIFS(record!B:B,report!B123,record!K:K,"\u65f7\u5de5\u534a\u5929")/2+COUNTIFS(record!B:B,report!B123,record!K:K,"\u65f7\u5de5")
p3325
aS'=V123'
p3326
aNaS"=VLOOKUP(A123,'[1]Annual Leave'!$A:$O,15,FALSE)"
p3327
aS'=SUMIF(record!B:B,report!B123,record!M:M)'
p3328
aS'=SUMIF(record!B:B,report!B123,record!O:O)'
p3329
aS'=SUMIF(record!B:B,report!B123,record!N:N)'
p3330
aS'=SUMIF(record!B:B,report!B123,record!P:P)'
p3331
aVjiantingting@smalltreemedia.com
p3332
aV1224
p3333
aa(lp3334
VAE1840
p3335
aV\u66fe\u51e1\u9f99
p3336
aVVogt Zeng Fanlong
p3337
ag3067
ag96
ag68
aL22L
aS'=G124-L124-M124'
p3338
aS'=G124-J124'
p3339
aS'=L124+M124+N124+O124+T124'
p3340
aS'=L124+M124+N124+O124+P124'
p3341
aS"=VLOOKUP(A124,'[1]201510'!$A:$S,5,FALSE)"
p3342
aS"=VLOOKUP(A124,'[1]201510'!$A:$AG,6,FALSE)"
p3343
aS"=VLOOKUP(A124,'[1]201510'!$A:$U,7,FALSE)"
p3344
aS"=VLOOKUP(A124,'[1]201510'!$A:$R,8,FALSE)"
p3345
aS"=-VLOOKUP(A124,'[1]201510'!$A:$Y,10,FALSE)/8"
p3346
aS'=N124+O124'
p3347
aS'=COUNTIFS(record!B:B,report!B124,record!K:K,"late1")'
p3348
aS'=COUNTIFS(record!B:B,report!B124,record!K:K,"late2")'
p3349
aS'=COUNTIFS(record!B:B,report!B124,record!K:K,"late3")'
p3350
aS'=IF(AND(E124="FTE",F124<>$F$2,G124=MAX(G:G),L124=0,M124=0,Q124<=5,R124=0,S124=0,T124=0,V124=0),"Y","N")'
p3351
aV=COUNTIFS(record!B:B,report!B124,record!K:K,"\u65f7\u5de5\u534a\u5929")/2+COUNTIFS(record!B:B,report!B124,record!K:K,"\u65f7\u5de5")
p3352
aS'=V124'
p3353
aNaS"=VLOOKUP(A124,'[1]Annual Leave'!$A:$O,15,FALSE)"
p3354
aS'=SUMIF(record!B:B,report!B124,record!M:M)'
p3355
aS'=SUMIF(record!B:B,report!B124,record!O:O)'
p3356
aS'=SUMIF(record!B:B,report!B124,record!N:N)'
p3357
aS'=SUMIF(record!B:B,report!B124,record!P:P)'
p3358
aVzengfanlong@smalltreemedia.com
p3359
aV1226
p3360
aa(lp3361
VAE1841
p3362
aV\u6768\u8fdc\u4e54
p3363
aVJohn Yang Yuanqiao
p3364
ag3067
ag96
ag68
aL22L
aS'=G125-L125-M125'
p3365
aS'=G125-J125'
p3366
aS'=L125+M125+N125+O125+T125'
p3367
aS'=L125+M125+N125+O125+P125'
p3368
aS"=VLOOKUP(A125,'[1]201510'!$A:$S,5,FALSE)"
p3369
aS"=VLOOKUP(A125,'[1]201510'!$A:$AG,6,FALSE)"
p3370
aS"=VLOOKUP(A125,'[1]201510'!$A:$U,7,FALSE)"
p3371
aS"=VLOOKUP(A125,'[1]201510'!$A:$R,8,FALSE)"
p3372
aS"=-VLOOKUP(A125,'[1]201510'!$A:$Y,10,FALSE)/8"
p3373
aS'=N125+O125'
p3374
aS'=COUNTIFS(record!B:B,report!B125,record!K:K,"late1")'
p3375
aS'=COUNTIFS(record!B:B,report!B125,record!K:K,"late2")'
p3376
aS'=COUNTIFS(record!B:B,report!B125,record!K:K,"late3")'
p3377
aS'=IF(AND(E125="FTE",F125<>$F$2,G125=MAX(G:G),L125=0,M125=0,Q125<=5,R125=0,S125=0,T125=0,V125=0),"Y","N")'
p3378
aV=COUNTIFS(record!B:B,report!B125,record!K:K,"\u65f7\u5de5\u534a\u5929")/2+COUNTIFS(record!B:B,report!B125,record!K:K,"\u65f7\u5de5")
p3379
aS'=V125'
p3380
aNaS"=VLOOKUP(A125,'[1]Annual Leave'!$A:$O,15,FALSE)"
p3381
aS'=SUMIF(record!B:B,report!B125,record!M:M)'
p3382
aS'=SUMIF(record!B:B,report!B125,record!O:O)'
p3383
aS'=SUMIF(record!B:B,report!B125,record!N:N)'
p3384
aS'=SUMIF(record!B:B,report!B125,record!P:P)'
p3385
aVyangyuanqiao@smalltreemedia.com
p3386
aV1227
p3387
aa(lp3388
VAE1842
p3389
aV\u90d1\u660e\u9633
p3390
aVAnswer Zheng Mingyang
p3391
ag3067
ag96
ag68
aL22L
aS'=G126-L126-M126'
p3392
aS'=G126-J126'
p3393
aS'=L126+M126+N126+O126+T126'
p3394
aS'=L126+M126+N126+O126+P126'
p3395
aS"=VLOOKUP(A126,'[1]201510'!$A:$S,5,FALSE)"
p3396
aS"=VLOOKUP(A126,'[1]201510'!$A:$AG,6,FALSE)"
p3397
aS"=VLOOKUP(A126,'[1]201510'!$A:$U,7,FALSE)"
p3398
aS"=VLOOKUP(A126,'[1]201510'!$A:$R,8,FALSE)"
p3399
aS"=-VLOOKUP(A126,'[1]201510'!$A:$Y,10,FALSE)/8"
p3400
aS'=N126+O126'
p3401
aS'=COUNTIFS(record!B:B,report!B126,record!K:K,"late1")'
p3402
aS'=COUNTIFS(record!B:B,report!B126,record!K:K,"late2")'
p3403
aS'=COUNTIFS(record!B:B,report!B126,record!K:K,"late3")'
p3404
aS'=IF(AND(E126="FTE",F126<>$F$2,G126=MAX(G:G),L126=0,M126=0,Q126<=5,R126=0,S126=0,T126=0,V126=0),"Y","N")'
p3405
aV=COUNTIFS(record!B:B,report!B126,record!K:K,"\u65f7\u5de5\u534a\u5929")/2+COUNTIFS(record!B:B,report!B126,record!K:K,"\u65f7\u5de5")
p3406
aS'=V126'
p3407
aNaS"=VLOOKUP(A126,'[1]Annual Leave'!$A:$O,15,FALSE)"
p3408
aS'=SUMIF(record!B:B,report!B126,record!M:M)'
p3409
aS'=SUMIF(record!B:B,report!B126,record!O:O)'
p3410
aS'=SUMIF(record!B:B,report!B126,record!N:N)'
p3411
aS'=SUMIF(record!B:B,report!B126,record!P:P)'
p3412
aVzhengmingyang@smalltreemedia.com
p3413
aV1228
p3414
aa(lp3415
VAE1773
p3416
aV\u5218\u4ec1\u7384
p3417
aVLiu Renxuan
p3418
ag3067
ag67
ag68
aL22L
aS'=G127-L127-M127'
p3419
aS'=G127-J127'
p3420
aS'=L127+M127+N127+O127+T127'
p3421
aS'=L127+M127+N127+O127+P127'
p3422
aS"=VLOOKUP(A127,'[1]201510'!$A:$S,5,FALSE)"
p3423
aS"=VLOOKUP(A127,'[1]201510'!$A:$AG,6,FALSE)"
p3424
aS"=VLOOKUP(A127,'[1]201510'!$A:$U,7,FALSE)"
p3425
aS"=VLOOKUP(A127,'[1]201510'!$A:$R,8,FALSE)"
p3426
aS"=-VLOOKUP(A127,'[1]201510'!$A:$Y,10,FALSE)/8"
p3427
aS'=N127+O127'
p3428
aS'=COUNTIFS(record!B:B,report!B127,record!K:K,"late1")'
p3429
aS'=COUNTIFS(record!B:B,report!B127,record!K:K,"late2")'
p3430
aS'=COUNTIFS(record!B:B,report!B127,record!K:K,"late3")'
p3431
aS'=IF(AND(E127="FTE",F127<>$F$2,G127=MAX(G:G),L127=0,M127=0,Q127<=5,R127=0,S127=0,T127=0,V127=0),"Y","N")'
p3432
aV=COUNTIFS(record!B:B,report!B127,record!K:K,"\u65f7\u5de5\u534a\u5929")/2+COUNTIFS(record!B:B,report!B127,record!K:K,"\u65f7\u5de5")
p3433
aS'=V127'
p3434
aNaS"=VLOOKUP(A127,'[1]Annual Leave'!$A:$O,15,FALSE)"
p3435
aS'=SUMIF(record!B:B,report!B127,record!M:M)'
p3436
aS'=SUMIF(record!B:B,report!B127,record!O:O)'
p3437
aS'=SUMIF(record!B:B,report!B127,record!N:N)'
p3438
aS'=SUMIF(record!B:B,report!B127,record!P:P)'
p3439
aVliurenxuan@smalltreemedia.com
p3440
aV1223
p3441
aa(lp3442
VAE1844
p3443
aV\u623f\u83f2
p3444
aVFaye Fang Fei
p3445
ag3067
ag96
ag68
aL22L
aS'=G128-L128-M128'
p3446
aS'=G128-J128'
p3447
aS'=L128+M128+N128+O128+T128'
p3448
aS'=L128+M128+N128+O128+P128'
p3449
aS"=VLOOKUP(A128,'[1]201510'!$A:$S,5,FALSE)"
p3450
aS"=VLOOKUP(A128,'[1]201510'!$A:$AG,6,FALSE)"
p3451
aS"=VLOOKUP(A128,'[1]201510'!$A:$U,7,FALSE)"
p3452
aS"=VLOOKUP(A128,'[1]201510'!$A:$R,8,FALSE)"
p3453
aS"=-VLOOKUP(A128,'[1]201510'!$A:$Y,10,FALSE)/8"
p3454
aS'=N128+O128'
p3455
aS'=COUNTIFS(record!B:B,report!B128,record!K:K,"late1")'
p3456
aS'=COUNTIFS(record!B:B,report!B128,record!K:K,"late2")'
p3457
aS'=COUNTIFS(record!B:B,report!B128,record!K:K,"late3")'
p3458
aS'=IF(AND(E128="FTE",F128<>$F$2,G128=MAX(G:G),L128=0,M128=0,Q128<=5,R128=0,S128=0,T128=0,V128=0),"Y","N")'
p3459
aV=COUNTIFS(record!B:B,report!B128,record!K:K,"\u65f7\u5de5\u534a\u5929")/2+COUNTIFS(record!B:B,report!B128,record!K:K,"\u65f7\u5de5")
p3460
aS'=V128'
p3461
ag1007
aS"=VLOOKUP(A128,'[1]Annual Leave'!$A:$O,15,FALSE)"
p3462
aS'=SUMIF(record!B:B,report!B128,record!M:M)'
p3463
aS'=SUMIF(record!B:B,report!B128,record!O:O)'
p3464
aS'=SUMIF(record!B:B,report!B128,record!N:N)'
p3465
aS'=SUMIF(record!B:B,report!B128,record!P:P)'
p3466
aVfangfei@smalltreemedia.com
p3467
aV1231
p3468
aa(lp3469
VAE1846
p3470
aV\u5468\u6770
p3471
aVZhou Jie
p3472
ag3067
aVIntern/Trainee
p3473
ag68
aL22L
aS'=G129-L129-M129'
p3474
aS'=G129-J129'
p3475
aS'=L129+M129+N129+O129+T129'
p3476
aS'=L129+M129+N129+O129+P129'
p3477
aS"=VLOOKUP(A129,'[1]201510'!$A:$S,5,FALSE)"
p3478
aS"=VLOOKUP(A129,'[1]201510'!$A:$AG,6,FALSE)"
p3479
aS"=VLOOKUP(A129,'[1]201510'!$A:$U,7,FALSE)"
p3480
aS"=VLOOKUP(A129,'[1]201510'!$A:$R,8,FALSE)"
p3481
aS"=-VLOOKUP(A129,'[1]201510'!$A:$Y,10,FALSE)/8"
p3482
aS'=N129+O129'
p3483
aS'=COUNTIFS(record!B:B,report!B129,record!K:K,"late1")'
p3484
aS'=COUNTIFS(record!B:B,report!B129,record!K:K,"late2")'
p3485
aS'=COUNTIFS(record!B:B,report!B129,record!K:K,"late3")'
p3486
aS'=IF(AND(E129="FTE",F129<>$F$2,G129=MAX(G:G),L129=0,M129=0,Q129<=5,R129=0,S129=0,T129=0,V129=0),"Y","N")'
p3487
aV=COUNTIFS(record!B:B,report!B129,record!K:K,"\u65f7\u5de5\u534a\u5929")/2+COUNTIFS(record!B:B,report!B129,record!K:K,"\u65f7\u5de5")
p3488
aS'=V129'
p3489
aNaS"=VLOOKUP(A129,'[1]Annual Leave'!$A:$O,15,FALSE)"
p3490
aS'=SUMIF(record!B:B,report!B129,record!M:M)'
p3491
aS'=SUMIF(record!B:B,report!B129,record!O:O)'
p3492
aS'=SUMIF(record!B:B,report!B129,record!N:N)'
p3493
aS'=SUMIF(record!B:B,report!B129,record!P:P)'
p3494
aVzhoujie@smalltreemedia.com
p3495
aV1232
p3496
aa(lp3497
VAE1796
p3498
aV\u6c6a\u8fea\u5c91
p3499
aVWang Dicen
p3500
ag3067
ag67
ag68
aL22L
aS'=G130-L130-M130'
p3501
aS'=G130-J130'
p3502
aS'=L130+M130+N130+O130+T130'
p3503
aS'=L130+M130+N130+O130+P130'
p3504
aS"=VLOOKUP(A130,'[1]201510'!$A:$S,5,FALSE)"
p3505
aS"=VLOOKUP(A130,'[1]201510'!$A:$AG,6,FALSE)"
p3506
aS"=VLOOKUP(A130,'[1]201510'!$A:$U,7,FALSE)"
p3507
aS"=VLOOKUP(A130,'[1]201510'!$A:$R,8,FALSE)"
p3508
aS"=-VLOOKUP(A130,'[1]201510'!$A:$Y,10,FALSE)/8"
p3509
aS'=N130+O130'
p3510
aS'=COUNTIFS(record!B:B,report!B130,record!K:K,"late1")'
p3511
aS'=COUNTIFS(record!B:B,report!B130,record!K:K,"late2")'
p3512
aS'=COUNTIFS(record!B:B,report!B130,record!K:K,"late3")'
p3513
aS'=IF(AND(E130="FTE",F130<>$F$2,G130=MAX(G:G),L130=0,M130=0,Q130<=5,R130=0,S130=0,T130=0,V130=0),"Y","N")'
p3514
aV=COUNTIFS(record!B:B,report!B130,record!K:K,"\u65f7\u5de5\u534a\u5929")/2+COUNTIFS(record!B:B,report!B130,record!K:K,"\u65f7\u5de5")
p3515
aS'=V130'
p3516
aNaS"=VLOOKUP(A130,'[1]Annual Leave'!$A:$O,15,FALSE)"
p3517
aS'=SUMIF(record!B:B,report!B130,record!M:M)'
p3518
aS'=SUMIF(record!B:B,report!B130,record!O:O)'
p3519
aS'=SUMIF(record!B:B,report!B130,record!N:N)'
p3520
aS'=SUMIF(record!B:B,report!B130,record!P:P)'
p3521
aVwangdicen@smalltreemedia.com
p3522
aV1176
p3523
aa(lp3524
VAE1847
p3525
aV\u9ec4\u6587
p3526
aVHuang Wen
p3527
aVOn the Job \u5728\u804c
p3528
aVIntern/Trainee
p3529
aV8:30-17:30
p3530
aL22L
aS'=G131-L131-M131'
p3531
aS'=G131-J131'
p3532
aS'=L131+M131+N131+O131+T131'
p3533
aS'=L131+M131+N131+O131+P131'
p3534
aS"=VLOOKUP(A131,'[1]201510'!$A:$S,5,FALSE)"
p3535
aS"=VLOOKUP(A131,'[1]201510'!$A:$AG,6,FALSE)"
p3536
aS"=VLOOKUP(A131,'[1]201510'!$A:$U,7,FALSE)"
p3537
aS"=VLOOKUP(A131,'[1]201510'!$A:$R,8,FALSE)"
p3538
aS"=-VLOOKUP(A131,'[1]201510'!$A:$Y,10,FALSE)/8"
p3539
aS'=N131+O131'
p3540
aS'=COUNTIFS(record!B:B,report!B131,record!K:K,"late1")'
p3541
aS'=COUNTIFS(record!B:B,report!B131,record!K:K,"late2")'
p3542
aS'=COUNTIFS(record!B:B,report!B131,record!K:K,"late3")'
p3543
aS'=IF(AND(E131="FTE",F131<>$F$2,G131=MAX(G:G),L131=0,M131=0,Q131<=5,R131=0,S131=0,T131=0,V131=0),"Y","N")'
p3544
aV=COUNTIFS(record!B:B,report!B131,record!K:K,"\u65f7\u5de5\u534a\u5929")/2+COUNTIFS(record!B:B,report!B131,record!K:K,"\u65f7\u5de5")
p3545
aS'=V131'
p3546
aNaS"=VLOOKUP(A131,'[1]Annual Leave'!$A:$O,15,FALSE)"
p3547
aS'=SUMIF(record!B:B,report!B131,record!M:M)'
p3548
aS'=SUMIF(record!B:B,report!B131,record!O:O)'
p3549
aS'=SUMIF(record!B:B,report!B131,record!N:N)'
p3550
aS'=SUMIF(record!B:B,report!B131,record!P:P)'
p3551
aVhuangwen@smalltreemedia.com
p3552
aV1233
p3553
aa(lp3554
VAE1848
p3555
aV\u5f90\u68a6\u7476
p3556
aVXu Mengyao
p3557
ag3528
aVFTE
p3558
ag3530
aL22L
aS'=G132-L132-M132'
p3559
aS'=G132-J132'
p3560
aS'=L132+M132+N132+O132+T132'
p3561
aS'=L132+M132+N132+O132+P132'
p3562
aS"=VLOOKUP(A132,'[1]201510'!$A:$S,5,FALSE)"
p3563
aS"=VLOOKUP(A132,'[1]201510'!$A:$AG,6,FALSE)"
p3564
aS"=VLOOKUP(A132,'[1]201510'!$A:$U,7,FALSE)"
p3565
aS"=VLOOKUP(A132,'[1]201510'!$A:$R,8,FALSE)"
p3566
aS"=-VLOOKUP(A132,'[1]201510'!$A:$Y,10,FALSE)/8"
p3567
aS'=N132+O132'
p3568
aS'=COUNTIFS(record!B:B,report!B132,record!K:K,"late1")'
p3569
aS'=COUNTIFS(record!B:B,report!B132,record!K:K,"late2")'
p3570
aS'=COUNTIFS(record!B:B,report!B132,record!K:K,"late3")'
p3571
aS'=IF(AND(E132="FTE",F132<>$F$2,G132=MAX(G:G),L132=0,M132=0,Q132<=5,R132=0,S132=0,T132=0,V132=0),"Y","N")'
p3572
aV=COUNTIFS(record!B:B,report!B132,record!K:K,"\u65f7\u5de5\u534a\u5929")/2+COUNTIFS(record!B:B,report!B132,record!K:K,"\u65f7\u5de5")
p3573
aS'=V132'
p3574
aNaS"=VLOOKUP(A132,'[1]Annual Leave'!$A:$O,15,FALSE)"
p3575
aS'=SUMIF(record!B:B,report!B132,record!M:M)'
p3576
aS'=SUMIF(record!B:B,report!B132,record!O:O)'
p3577
aS'=SUMIF(record!B:B,report!B132,record!N:N)'
p3578
aS'=SUMIF(record!B:B,report!B132,record!P:P)'
p3579
aVxumengyao@smalltreemedia.com
p3580
aV1234
p3581
aa(lp3582
VAE1850
p3583
aV\u5b59\u54f2
p3584
aVSun Zhe
p3585
ag3528
ag3558
ag68
aL22L
aS'=G133-L133-M133'
p3586
aS'=G133-J133'
p3587
aS'=L133+M133+N133+O133+T133'
p3588
aS'=L133+M133+N133+O133+P133'
p3589
aS"=VLOOKUP(A133,'[1]201510'!$A:$S,5,FALSE)"
p3590
aS"=VLOOKUP(A133,'[1]201510'!$A:$AG,6,FALSE)"
p3591
aS"=VLOOKUP(A133,'[1]201510'!$A:$U,7,FALSE)"
p3592
aS"=VLOOKUP(A133,'[1]201510'!$A:$R,8,FALSE)"
p3593
aS"=-VLOOKUP(A133,'[1]201510'!$A:$Y,10,FALSE)/8"
p3594
aS'=N133+O133'
p3595
aS'=COUNTIFS(record!B:B,report!B133,record!K:K,"late1")'
p3596
aS'=COUNTIFS(record!B:B,report!B133,record!K:K,"late2")'
p3597
aS'=COUNTIFS(record!B:B,report!B133,record!K:K,"late3")'
p3598
aS'=IF(AND(E133="FTE",F133<>$F$2,G133=MAX(G:G),L133=0,M133=0,Q133<=5,R133=0,S133=0,T133=0,V133=0),"Y","N")'
p3599
aV=COUNTIFS(record!B:B,report!B133,record!K:K,"\u65f7\u5de5\u534a\u5929")/2+COUNTIFS(record!B:B,report!B133,record!K:K,"\u65f7\u5de5")
p3600
aS'=V133'
p3601
ag2168
aS"=VLOOKUP(A133,'[1]Annual Leave'!$A:$O,15,FALSE)"
p3602
aS'=SUMIF(record!B:B,report!B133,record!M:M)'
p3603
aS'=SUMIF(record!B:B,report!B133,record!O:O)'
p3604
aS'=SUMIF(record!B:B,report!B133,record!N:N)'
p3605
aS'=SUMIF(record!B:B,report!B133,record!P:P)'
p3606
aVsunzhe@smalltreemedia.com
p3607
aV1237
p3608
aa(lp3609
VAE1851
p3610
aV\u6881\u542f\u660e
p3611
aVLiang Qiming
p3612
ag3528
ag3558
ag68
aL22L
aS'=G134-L134-M134'
p3613
aS'=G134-J134'
p3614
aS'=L134+M134+N134+O134+T134'
p3615
aS'=L134+M134+N134+O134+P134'
p3616
aS"=VLOOKUP(A134,'[1]201510'!$A:$S,5,FALSE)"
p3617
aS"=VLOOKUP(A134,'[1]201510'!$A:$AG,6,FALSE)"
p3618
aS"=VLOOKUP(A134,'[1]201510'!$A:$U,7,FALSE)"
p3619
aS"=VLOOKUP(A134,'[1]201510'!$A:$R,8,FALSE)"
p3620
aS"=-VLOOKUP(A134,'[1]201510'!$A:$Y,10,FALSE)/8"
p3621
aS'=N134+O134'
p3622
aS'=COUNTIFS(record!B:B,report!B134,record!K:K,"late1")'
p3623
aS'=COUNTIFS(record!B:B,report!B134,record!K:K,"late2")'
p3624
aS'=COUNTIFS(record!B:B,report!B134,record!K:K,"late3")'
p3625
aS'=IF(AND(E134="FTE",F134<>$F$2,G134=MAX(G:G),L134=0,M134=0,Q134<=5,R134=0,S134=0,T134=0,V134=0),"Y","N")'
p3626
aV=COUNTIFS(record!B:B,report!B134,record!K:K,"\u65f7\u5de5\u534a\u5929")/2+COUNTIFS(record!B:B,report!B134,record!K:K,"\u65f7\u5de5")
p3627
aS'=V134'
p3628
ag1007
aS"=VLOOKUP(A134,'[1]Annual Leave'!$A:$O,15,FALSE)"
p3629
aS'=SUMIF(record!B:B,report!B134,record!M:M)'
p3630
aS'=SUMIF(record!B:B,report!B134,record!O:O)'
p3631
aS'=SUMIF(record!B:B,report!B134,record!N:N)'
p3632
aS'=SUMIF(record!B:B,report!B134,record!P:P)'
p3633
aVliangqiming@smalltreemedia.com
p3634
aV1236
p3635
aa(lp3636
VAE1852
p3637
aV\u9c81\u6d69\u5b87
p3638
aVLu Haoyu
p3639
ag3528
ag3558
ag68
aL22L
aS'=G135-L135-M135'
p3640
aS'=G135-J135'
p3641
aS'=L135+M135+N135+O135+T135'
p3642
aS'=L135+M135+N135+O135+P135'
p3643
aS"=VLOOKUP(A135,'[1]201510'!$A:$S,5,FALSE)"
p3644
aS"=VLOOKUP(A135,'[1]201510'!$A:$AG,6,FALSE)"
p3645
aS"=VLOOKUP(A135,'[1]201510'!$A:$U,7,FALSE)"
p3646
aS"=VLOOKUP(A135,'[1]201510'!$A:$R,8,FALSE)"
p3647
aS"=-VLOOKUP(A135,'[1]201510'!$A:$Y,10,FALSE)/8"
p3648
aS'=N135+O135'
p3649
aS'=COUNTIFS(record!B:B,report!B135,record!K:K,"late1")'
p3650
aS'=COUNTIFS(record!B:B,report!B135,record!K:K,"late2")'
p3651
aS'=COUNTIFS(record!B:B,report!B135,record!K:K,"late3")'
p3652
aS'=IF(AND(E135="FTE",F135<>$F$2,G135=MAX(G:G),L135=0,M135=0,Q135<=5,R135=0,S135=0,T135=0,V135=0),"Y","N")'
p3653
aV=COUNTIFS(record!B:B,report!B135,record!K:K,"\u65f7\u5de5\u534a\u5929")/2+COUNTIFS(record!B:B,report!B135,record!K:K,"\u65f7\u5de5")
p3654
aS'=V135'
p3655
aNaS"=VLOOKUP(A135,'[1]Annual Leave'!$A:$O,15,FALSE)"
p3656
aS'=SUMIF(record!B:B,report!B135,record!M:M)'
p3657
aS'=SUMIF(record!B:B,report!B135,record!O:O)'
p3658
aS'=SUMIF(record!B:B,report!B135,record!N:N)'
p3659
aS'=SUMIF(record!B:B,report!B135,record!P:P)'
p3660
aVluhaoyu@smalltreemedia.com
p3661
aV1238
p3662
aa(lp3663
VAE1853
p3664
aV\u6587\u4e3d\u541b
p3665
aVJulie Wen Lijun
p3666
ag3528
ag3558
ag68
aL22L
aS'=G136-L136-M136'
p3667
aS'=G136-J136'
p3668
aS'=L136+M136+N136+O136+T136'
p3669
aS'=L136+M136+N136+O136+P136'
p3670
aS"=VLOOKUP(A136,'[1]201510'!$A:$S,5,FALSE)"
p3671
aS"=VLOOKUP(A136,'[1]201510'!$A:$AG,6,FALSE)"
p3672
aS"=VLOOKUP(A136,'[1]201510'!$A:$U,7,FALSE)"
p3673
aS"=VLOOKUP(A136,'[1]201510'!$A:$R,8,FALSE)"
p3674
aS"=-VLOOKUP(A136,'[1]201510'!$A:$Y,10,FALSE)/8"
p3675
aS'=N136+O136'
p3676
aS'=COUNTIFS(record!B:B,report!B136,record!K:K,"late1")'
p3677
aS'=COUNTIFS(record!B:B,report!B136,record!K:K,"late2")'
p3678
aS'=COUNTIFS(record!B:B,report!B136,record!K:K,"late3")'
p3679
aS'=IF(AND(E136="FTE",F136<>$F$2,G136=MAX(G:G),L136=0,M136=0,Q136<=5,R136=0,S136=0,T136=0,V136=0),"Y","N")'
p3680
aV=COUNTIFS(record!B:B,report!B136,record!K:K,"\u65f7\u5de5\u534a\u5929")/2+COUNTIFS(record!B:B,report!B136,record!K:K,"\u65f7\u5de5")
p3681
aS'=V136'
p3682
aNaS"=VLOOKUP(A136,'[1]Annual Leave'!$A:$O,15,FALSE)"
p3683
aS'=SUMIF(record!B:B,report!B136,record!M:M)'
p3684
aS'=SUMIF(record!B:B,report!B136,record!O:O)'
p3685
aS'=SUMIF(record!B:B,report!B136,record!N:N)'
p3686
aS'=SUMIF(record!B:B,report!B136,record!P:P)'
p3687
aVjulie.wen@smalltreemedia.com
p3688
aV1239
p3689
aa(lp3690
VAE1854
p3691
aV\u80e1\u5a49\u9038
p3692
aVFiona Hu Wanyi
p3693
ag3528
ag3558
ag68
aL22L
aS'=G137-L137-M137'
p3694
aS'=G137-J137'
p3695
aS'=L137+M137+N137+O137+T137'
p3696
aS'=L137+M137+N137+O137+P137'
p3697
aS"=VLOOKUP(A137,'[1]201510'!$A:$S,5,FALSE)"
p3698
aS"=VLOOKUP(A137,'[1]201510'!$A:$AG,6,FALSE)"
p3699
aS"=VLOOKUP(A137,'[1]201510'!$A:$U,7,FALSE)"
p3700
aS"=VLOOKUP(A137,'[1]201510'!$A:$R,8,FALSE)"
p3701
aS"=-VLOOKUP(A137,'[1]201510'!$A:$Y,10,FALSE)/8"
p3702
aS'=N137+O137'
p3703
aS'=COUNTIFS(record!B:B,report!B137,record!K:K,"late1")'
p3704
aS'=COUNTIFS(record!B:B,report!B137,record!K:K,"late2")'
p3705
aS'=COUNTIFS(record!B:B,report!B137,record!K:K,"late3")'
p3706
aS'=IF(AND(E137="FTE",F137<>$F$2,G137=MAX(G:G),L137=0,M137=0,Q137<=5,R137=0,S137=0,T137=0,V137=0),"Y","N")'
p3707
aV=COUNTIFS(record!B:B,report!B137,record!K:K,"\u65f7\u5de5\u534a\u5929")/2+COUNTIFS(record!B:B,report!B137,record!K:K,"\u65f7\u5de5")
p3708
aS'=V137'
p3709
aNaS"=VLOOKUP(A137,'[1]Annual Leave'!$A:$O,15,FALSE)"
p3710
aS'=SUMIF(record!B:B,report!B137,record!M:M)'
p3711
aS'=SUMIF(record!B:B,report!B137,record!O:O)'
p3712
aS'=SUMIF(record!B:B,report!B137,record!N:N)'
p3713
aS'=SUMIF(record!B:B,report!B137,record!P:P)'
p3714
aVhuwanyi@smalltreemedia.com
p3715
aV1240
p3716
aa(lp3717
VAE1855
p3718
aV\u607d\u851a\u6797
p3719
aVYun Weilin
p3720
ag3528
ag96
ag68
aL22L
aS'=G138-L138-M138'
p3721
aS'=G138-J138'
p3722
aS'=L138+M138+N138+O138+T138'
p3723
aS'=L138+M138+N138+O138+P138'
p3724
aS"=VLOOKUP(A138,'[1]201510'!$A:$S,5,FALSE)"
p3725
aS"=VLOOKUP(A138,'[1]201510'!$A:$AG,6,FALSE)"
p3726
aS"=VLOOKUP(A138,'[1]201510'!$A:$U,7,FALSE)"
p3727
aS"=VLOOKUP(A138,'[1]201510'!$A:$R,8,FALSE)"
p3728
aS"=-VLOOKUP(A138,'[1]201510'!$A:$Y,10,FALSE)/8"
p3729
aS'=N138+O138'
p3730
aS'=COUNTIFS(record!B:B,report!B138,record!K:K,"late1")'
p3731
aS'=COUNTIFS(record!B:B,report!B138,record!K:K,"late2")'
p3732
aS'=COUNTIFS(record!B:B,report!B138,record!K:K,"late3")'
p3733
aS'=IF(AND(E138="FTE",F138<>$F$2,G138=MAX(G:G),L138=0,M138=0,Q138<=5,R138=0,S138=0,T138=0,V138=0),"Y","N")'
p3734
aV=COUNTIFS(record!B:B,report!B138,record!K:K,"\u65f7\u5de5\u534a\u5929")/2+COUNTIFS(record!B:B,report!B138,record!K:K,"\u65f7\u5de5")
p3735
aS'=V138'
p3736
aNaS"=VLOOKUP(A138,'[1]Annual Leave'!$A:$O,15,FALSE)"
p3737
aS'=SUMIF(record!B:B,report!B138,record!M:M)'
p3738
aS'=SUMIF(record!B:B,report!B138,record!O:O)'
p3739
aS'=SUMIF(record!B:B,report!B138,record!N:N)'
p3740
aS'=SUMIF(record!B:B,report!B138,record!P:P)'
p3741
aVyunweilin@smalltreemedia.com
p3742
aV1241
p3743
aa(lp3744
VAE1856
p3745
aV\u4f55\u5b87\u6797
p3746
aVHe Yunlin
p3747
ag3528
ag96
ag68
aL22L
aS'=G139-L139-M139'
p3748
aS'=G139-J139'
p3749
aS'=L139+M139+N139+O139+T139'
p3750
aS'=L139+M139+N139+O139+P139'
p3751
aS"=VLOOKUP(A139,'[1]201510'!$A:$S,5,FALSE)"
p3752
aS"=VLOOKUP(A139,'[1]201510'!$A:$AG,6,FALSE)"
p3753
aS"=VLOOKUP(A139,'[1]201510'!$A:$U,7,FALSE)"
p3754
aS"=VLOOKUP(A139,'[1]201510'!$A:$R,8,FALSE)"
p3755
aS"=-VLOOKUP(A139,'[1]201510'!$A:$Y,10,FALSE)/8"
p3756
aS'=N139+O139'
p3757
aS'=COUNTIFS(record!B:B,report!B139,record!K:K,"late1")'
p3758
aS'=COUNTIFS(record!B:B,report!B139,record!K:K,"late2")'
p3759
aS'=COUNTIFS(record!B:B,report!B139,record!K:K,"late3")'
p3760
aS'=IF(AND(E139="FTE",F139<>$F$2,G139=MAX(G:G),L139=0,M139=0,Q139<=5,R139=0,S139=0,T139=0,V139=0),"Y","N")'
p3761
aV=COUNTIFS(record!B:B,report!B139,record!K:K,"\u65f7\u5de5\u534a\u5929")/2+COUNTIFS(record!B:B,report!B139,record!K:K,"\u65f7\u5de5")
p3762
aS'=V139'
p3763
aNaS"=VLOOKUP(A139,'[1]Annual Leave'!$A:$O,15,FALSE)"
p3764
aS'=SUMIF(record!B:B,report!B139,record!M:M)'
p3765
aS'=SUMIF(record!B:B,report!B139,record!O:O)'
p3766
aS'=SUMIF(record!B:B,report!B139,record!N:N)'
p3767
aS'=SUMIF(record!B:B,report!B139,record!P:P)'
p3768
aVheyulin@smalltreemedia.com
p3769
aV1243
p3770
aa(lp3771
VAE1857
p3772
aV\u767d\u826f\u4fca
p3773
aVBai Liangjun
p3774
ag3528
ag96
aVFlexible
p3775
aL22L
aS'=G140-L140-M140'
p3776
aS'=G140-J140'
p3777
aS'=L140+M140+N140+O140+T140'
p3778
aS'=L140+M140+N140+O140+P140'
p3779
aS"=VLOOKUP(A140,'[1]201510'!$A:$S,5,FALSE)"
p3780
aS"=VLOOKUP(A140,'[1]201510'!$A:$AG,6,FALSE)"
p3781
aS"=VLOOKUP(A140,'[1]201510'!$A:$U,7,FALSE)"
p3782
aS"=VLOOKUP(A140,'[1]201510'!$A:$R,8,FALSE)"
p3783
aS"=-VLOOKUP(A140,'[1]201510'!$A:$Y,10,FALSE)/8"
p3784
aS'=N140+O140'
p3785
aS'=COUNTIFS(record!B:B,report!B140,record!K:K,"late1")'
p3786
aS'=COUNTIFS(record!B:B,report!B140,record!K:K,"late2")'
p3787
aS'=COUNTIFS(record!B:B,report!B140,record!K:K,"late3")'
p3788
aS'=IF(AND(E140="FTE",F140<>$F$2,G140=MAX(G:G),L140=0,M140=0,Q140<=5,R140=0,S140=0,T140=0,V140=0),"Y","N")'
p3789
aV=COUNTIFS(record!B:B,report!B140,record!K:K,"\u65f7\u5de5\u534a\u5929")/2+COUNTIFS(record!B:B,report!B140,record!K:K,"\u65f7\u5de5")
p3790
aS'=V140'
p3791
aNaS"=VLOOKUP(A140,'[1]Annual Leave'!$A:$O,15,FALSE)"
p3792
aS'=SUMIF(record!B:B,report!B140,record!M:M)'
p3793
aS'=SUMIF(record!B:B,report!B140,record!O:O)'
p3794
aS'=SUMIF(record!B:B,report!B140,record!N:N)'
p3795
aS'=SUMIF(record!B:B,report!B140,record!P:P)'
p3796
aVbailiangjun@smalltreemedia.com
p3797
aV1242
p3798
aa(lp3799
VAE1858
p3800
aV\u5f90\u83b9
p3801
aVXu Ying
p3802
ag3528
ag96
ag3775
aL22L
aS'=G141-L141-M141'
p3803
aS'=G141-J141'
p3804
aS'=L141+M141+N141+O141+T141'
p3805
aS'=L141+M141+N141+O141+P141'
p3806
aS"=VLOOKUP(A141,'[1]201510'!$A:$S,5,FALSE)"
p3807
aS"=VLOOKUP(A141,'[1]201510'!$A:$AG,6,FALSE)"
p3808
aS"=VLOOKUP(A141,'[1]201510'!$A:$U,7,FALSE)"
p3809
aS"=VLOOKUP(A141,'[1]201510'!$A:$R,8,FALSE)"
p3810
aS"=-VLOOKUP(A141,'[1]201510'!$A:$Y,10,FALSE)/8"
p3811
aS'=N141+O141'
p3812
aS'=COUNTIFS(record!B:B,report!B141,record!K:K,"late1")'
p3813
aS'=COUNTIFS(record!B:B,report!B141,record!K:K,"late2")'
p3814
aS'=COUNTIFS(record!B:B,report!B141,record!K:K,"late3")'
p3815
aS'=IF(AND(E141="FTE",F141<>$F$2,G141=MAX(G:G),L141=0,M141=0,Q141<=5,R141=0,S141=0,T141=0,V141=0),"Y","N")'
p3816
aV=COUNTIFS(record!B:B,report!B141,record!K:K,"\u65f7\u5de5\u534a\u5929")/2+COUNTIFS(record!B:B,report!B141,record!K:K,"\u65f7\u5de5")
p3817
aS'=V141'
p3818
aNaS"=VLOOKUP(A141,'[1]Annual Leave'!$A:$O,15,FALSE)"
p3819
aS'=SUMIF(record!B:B,report!B141,record!M:M)'
p3820
aS'=SUMIF(record!B:B,report!B141,record!O:O)'
p3821
aS'=SUMIF(record!B:B,report!B141,record!N:N)'
p3822
aS'=SUMIF(record!B:B,report!B141,record!P:P)'
p3823
aVxuying@smalltreemedia.com
p3824
aV1245
p3825
aa(lp3826
VAE1859
p3827
aV\u5510\u96f7
p3828
aVTang Lei
p3829
ag3528
ag96
ag68
aL22L
aS'=G142-L142-M142'
p3830
aS'=G142-J142'
p3831
aS'=L142+M142+N142+O142+T142'
p3832
aS'=L142+M142+N142+O142+P142'
p3833
aS"=VLOOKUP(A142,'[1]201510'!$A:$S,5,FALSE)"
p3834
aS"=VLOOKUP(A142,'[1]201510'!$A:$AG,6,FALSE)"
p3835
aS"=VLOOKUP(A142,'[1]201510'!$A:$U,7,FALSE)"
p3836
aS"=VLOOKUP(A142,'[1]201510'!$A:$R,8,FALSE)"
p3837
aS"=-VLOOKUP(A142,'[1]201510'!$A:$Y,10,FALSE)/8"
p3838
aS'=N142+O142'
p3839
aS'=COUNTIFS(record!B:B,report!B142,record!K:K,"late1")'
p3840
aS'=COUNTIFS(record!B:B,report!B142,record!K:K,"late2")'
p3841
aS'=COUNTIFS(record!B:B,report!B142,record!K:K,"late3")'
p3842
aS'=IF(AND(E142="FTE",F142<>$F$2,G142=MAX(G:G),L142=0,M142=0,Q142<=5,R142=0,S142=0,T142=0,V142=0),"Y","N")'
p3843
aV=COUNTIFS(record!B:B,report!B142,record!K:K,"\u65f7\u5de5\u534a\u5929")/2+COUNTIFS(record!B:B,report!B142,record!K:K,"\u65f7\u5de5")
p3844
aS'=V142'
p3845
aNaS"=VLOOKUP(A142,'[1]Annual Leave'!$A:$O,15,FALSE)"
p3846
aS'=SUMIF(record!B:B,report!B142,record!M:M)'
p3847
aS'=SUMIF(record!B:B,report!B142,record!O:O)'
p3848
aS'=SUMIF(record!B:B,report!B142,record!N:N)'
p3849
aS'=SUMIF(record!B:B,report!B142,record!P:P)'
p3850
aVtanglei@smalltreemedia.com
p3851
aV1244
p3852
aa(lp3853
VAE1861
p3854
aV\u8bb8\u6cfd\u6c9b
p3855
aVXu Zepei
p3856
ag3528
ag96
ag68
aL22L
aS'=G143-L143-M143'
p3857
aS'=G143-J143'
p3858
aS'=L143+M143+N143+O143+T143'
p3859
aS'=L143+M143+N143+O143+P143'
p3860
aS"=VLOOKUP(A143,'[1]201510'!$A:$S,5,FALSE)"
p3861
aS"=VLOOKUP(A143,'[1]201510'!$A:$AG,6,FALSE)"
p3862
aS"=VLOOKUP(A143,'[1]201510'!$A:$U,7,FALSE)"
p3863
aS"=VLOOKUP(A143,'[1]201510'!$A:$R,8,FALSE)"
p3864
aS"=-VLOOKUP(A143,'[1]201510'!$A:$Y,10,FALSE)/8"
p3865
aS'=N143+O143'
p3866
aS'=COUNTIFS(record!B:B,report!B143,record!K:K,"late1")'
p3867
aS'=COUNTIFS(record!B:B,report!B143,record!K:K,"late2")'
p3868
aS'=COUNTIFS(record!B:B,report!B143,record!K:K,"late3")'
p3869
aS'=IF(AND(E143="FTE",F143<>$F$2,G143=MAX(G:G),L143=0,M143=0,Q143<=5,R143=0,S143=0,T143=0,V143=0),"Y","N")'
p3870
aV=COUNTIFS(record!B:B,report!B143,record!K:K,"\u65f7\u5de5\u534a\u5929")/2+COUNTIFS(record!B:B,report!B143,record!K:K,"\u65f7\u5de5")
p3871
aS'=V143'
p3872
aNaS"=VLOOKUP(A143,'[1]Annual Leave'!$A:$O,15,FALSE)"
p3873
aS'=SUMIF(record!B:B,report!B143,record!M:M)'
p3874
aS'=SUMIF(record!B:B,report!B143,record!O:O)'
p3875
aS'=SUMIF(record!B:B,report!B143,record!N:N)'
p3876
aS'=SUMIF(record!B:B,report!B143,record!P:P)'
p3877
aVxuzepei@smalltreemedia.com
p3878
aV1247
p3879
aa(lp3880
VAE1792
p3881
aV\u674e\u5f3a
p3882
aVLi Qiang
p3883
ag3528
ag96
ag68
aL22L
aS'=G144-L144-M144'
p3884
aS'=G144-J144'
p3885
aS'=L144+M144+N144+O144+T144'
p3886
aS'=L144+M144+N144+O144+P144'
p3887
aS"=VLOOKUP(A144,'[1]201510'!$A:$S,5,FALSE)"
p3888
aS"=VLOOKUP(A144,'[1]201510'!$A:$AG,6,FALSE)"
p3889
aS"=VLOOKUP(A144,'[1]201510'!$A:$U,7,FALSE)"
p3890
aS"=VLOOKUP(A144,'[1]201510'!$A:$R,8,FALSE)"
p3891
aS"=-VLOOKUP(A144,'[1]201510'!$A:$Y,10,FALSE)/8"
p3892
aS'=N144+O144'
p3893
aS'=COUNTIFS(record!B:B,report!B144,record!K:K,"late1")'
p3894
aS'=COUNTIFS(record!B:B,report!B144,record!K:K,"late2")'
p3895
aS'=COUNTIFS(record!B:B,report!B144,record!K:K,"late3")'
p3896
aS'=IF(AND(E144="FTE",F144<>$F$2,G144=MAX(G:G),L144=0,M144=0,Q144<=5,R144=0,S144=0,T144=0,V144=0),"Y","N")'
p3897
aV=COUNTIFS(record!B:B,report!B144,record!K:K,"\u65f7\u5de5\u534a\u5929")/2+COUNTIFS(record!B:B,report!B144,record!K:K,"\u65f7\u5de5")
p3898
aS'=V144'
p3899
aNaS"=VLOOKUP(A144,'[1]Annual Leave'!$A:$O,15,FALSE)"
p3900
aS'=SUMIF(record!B:B,report!B144,record!M:M)'
p3901
aS'=SUMIF(record!B:B,report!B144,record!O:O)'
p3902
aS'=SUMIF(record!B:B,report!B144,record!N:N)'
p3903
aS'=SUMIF(record!B:B,report!B144,record!P:P)'
p3904
aVliqiang@smalltreemedia.com
p3905
aV1178
p3906
aa(lp3907
VAE1860
p3908
aV\u7f57\u9633
p3909
aVLuo Yang
p3910
ag3528
ag96
ag68
aL22L
aS'=G145-L145-M145'
p3911
aS'=G145-J145'
p3912
aS'=L145+M145+N145+O145+T145'
p3913
aS'=L145+M145+N145+O145+P145'
p3914
aS"=VLOOKUP(A145,'[1]201510'!$A:$S,5,FALSE)"
p3915
aS"=VLOOKUP(A145,'[1]201510'!$A:$AG,6,FALSE)"
p3916
aS"=VLOOKUP(A145,'[1]201510'!$A:$U,7,FALSE)"
p3917
aS"=VLOOKUP(A145,'[1]201510'!$A:$R,8,FALSE)"
p3918
aS"=-VLOOKUP(A145,'[1]201510'!$A:$Y,10,FALSE)/8"
p3919
aS'=N145+O145'
p3920
aS'=COUNTIFS(record!B:B,report!B145,record!K:K,"late1")'
p3921
aS'=COUNTIFS(record!B:B,report!B145,record!K:K,"late2")'
p3922
aS'=COUNTIFS(record!B:B,report!B145,record!K:K,"late3")'
p3923
aS'=IF(AND(E145="FTE",F145<>$F$2,G145=MAX(G:G),L145=0,M145=0,Q145<=5,R145=0,S145=0,T145=0,V145=0),"Y","N")'
p3924
aV=COUNTIFS(record!B:B,report!B145,record!K:K,"\u65f7\u5de5\u534a\u5929")/2+COUNTIFS(record!B:B,report!B145,record!K:K,"\u65f7\u5de5")
p3925
aS'=V145'
p3926
aNaS"=VLOOKUP(A145,'[1]Annual Leave'!$A:$O,15,FALSE)"
p3927
aS'=SUMIF(record!B:B,report!B145,record!M:M)'
p3928
aS'=SUMIF(record!B:B,report!B145,record!O:O)'
p3929
aS'=SUMIF(record!B:B,report!B145,record!N:N)'
p3930
aS'=SUMIF(record!B:B,report!B145,record!P:P)'
p3931
aVluoyang@smalltreemedia.com
p3932
aV1246
p3933
aa(lp3934
VAE1862
p3935
aV\u95eb\u7ff0
p3936
aVYan Han
p3937
ag3528
ag96
aV8:30-17:31
p3938
aL9L
aS'=G146-L146-M146'
p3939
aS'=G146-J146'
p3940
aS'=L146+M146+N146+O146+T146'
p3941
aS'=L146+M146+N146+O146+P146'
p3942
aS"=VLOOKUP(A146,'[1]201510'!$A:$S,5,FALSE)"
p3943
aS"=VLOOKUP(A146,'[1]201510'!$A:$AG,6,FALSE)"
p3944
aS"=VLOOKUP(A146,'[1]201510'!$A:$U,7,FALSE)"
p3945
aS"=VLOOKUP(A146,'[1]201510'!$A:$R,8,FALSE)"
p3946
aS"=-VLOOKUP(A146,'[1]201510'!$A:$Y,10,FALSE)/8"
p3947
aS'=N146+O146'
p3948
aS'=COUNTIFS(record!B:B,report!B146,record!K:K,"late1")'
p3949
aS'=COUNTIFS(record!B:B,report!B146,record!K:K,"late2")'
p3950
aS'=COUNTIFS(record!B:B,report!B146,record!K:K,"late3")'
p3951
aS'=IF(AND(E146="FTE",F146<>$F$2,G146=MAX(G:G),L146=0,M146=0,Q146<=5,R146=0,S146=0,T146=0,V146=0),"Y","N")'
p3952
aV=COUNTIFS(record!B:B,report!B146,record!K:K,"\u65f7\u5de5\u534a\u5929")/2+COUNTIFS(record!B:B,report!B146,record!K:K,"\u65f7\u5de5")
p3953
aS'=V146'
p3954
aNaS"=VLOOKUP(A146,'[1]Annual Leave'!$A:$O,15,FALSE)"
p3955
aS'=SUMIF(record!B:B,report!B146,record!M:M)'
p3956
aS'=SUMIF(record!B:B,report!B146,record!O:O)'
p3957
aS'=SUMIF(record!B:B,report!B146,record!N:N)'
p3958
aS'=SUMIF(record!B:B,report!B146,record!P:P)'
p3959
aVyanhan@smalltreemedia.com
p3960
aV1248
p3961
aa(lp3962
VAE1863
p3963
aV\u5468\u71d5
p3964
aVZhou Yan
p3965
ag3528
ag96
aV8:30-17:32
p3966
aL10L
aS'=G147-L147-M147'
p3967
aS'=G147-J147'
p3968
aS'=L147+M147+N147+O147+T147'
p3969
aS'=L147+M147+N147+O147+P147'
p3970
aS"=VLOOKUP(A147,'[1]201510'!$A:$S,5,FALSE)"
p3971
aS"=VLOOKUP(A147,'[1]201510'!$A:$AG,6,FALSE)"
p3972
aS"=VLOOKUP(A147,'[1]201510'!$A:$U,7,FALSE)"
p3973
aS"=VLOOKUP(A147,'[1]201510'!$A:$R,8,FALSE)"
p3974
aS"=-VLOOKUP(A147,'[1]201510'!$A:$Y,10,FALSE)/8"
p3975
aS'=N147+O147'
p3976
aS'=COUNTIFS(record!B:B,report!B147,record!K:K,"late1")'
p3977
aS'=COUNTIFS(record!B:B,report!B147,record!K:K,"late2")'
p3978
aS'=COUNTIFS(record!B:B,report!B147,record!K:K,"late3")'
p3979
aS'=IF(AND(E147="FTE",F147<>$F$2,G147=MAX(G:G),L147=0,M147=0,Q147<=5,R147=0,S147=0,T147=0,V147=0),"Y","N")'
p3980
aV=COUNTIFS(record!B:B,report!B147,record!K:K,"\u65f7\u5de5\u534a\u5929")/2+COUNTIFS(record!B:B,report!B147,record!K:K,"\u65f7\u5de5")
p3981
aS'=V147'
p3982
aNaS"=VLOOKUP(A147,'[1]Annual Leave'!$A:$O,15,FALSE)"
p3983
aS'=SUMIF(record!B:B,report!B147,record!M:M)'
p3984
aS'=SUMIF(record!B:B,report!B147,record!O:O)'
p3985
aS'=SUMIF(record!B:B,report!B147,record!N:N)'
p3986
aS'=SUMIF(record!B:B,report!B147,record!P:P)'
p3987
aVzhouyan@smalltreemedia.com
p3988
aV1249
p3989
aa(lp3990
VAE1864
p3991
aV\u5468\u5e06
p3992
aVZhou Fan
p3993
ag3528
ag96
aV8:30-17:33
p3994
aL2L
aS'=G148-L148-M148'
p3995
aS'=G148-J148'
p3996
aS'=L148+M148+N148+O148+T148'
p3997
aS'=L148+M148+N148+O148+P148'
p3998
aS"=VLOOKUP(A148,'[1]201510'!$A:$S,5,FALSE)"
p3999
aS"=VLOOKUP(A148,'[1]201510'!$A:$AG,6,FALSE)"
p4000
aS"=VLOOKUP(A148,'[1]201510'!$A:$U,7,FALSE)"
p4001
aS"=VLOOKUP(A148,'[1]201510'!$A:$R,8,FALSE)"
p4002
aS"=-VLOOKUP(A148,'[1]201510'!$A:$Y,10,FALSE)/8"
p4003
aS'=N148+O148'
p4004
aS'=COUNTIFS(record!B:B,report!B148,record!K:K,"late1")'
p4005
aS'=COUNTIFS(record!B:B,report!B148,record!K:K,"late2")'
p4006
aS'=COUNTIFS(record!B:B,report!B148,record!K:K,"late3")'
p4007
aS'=IF(AND(E148="FTE",F148<>$F$2,G148=MAX(G:G),L148=0,M148=0,Q148<=5,R148=0,S148=0,T148=0,V148=0),"Y","N")'
p4008
aV=COUNTIFS(record!B:B,report!B148,record!K:K,"\u65f7\u5de5\u534a\u5929")/2+COUNTIFS(record!B:B,report!B148,record!K:K,"\u65f7\u5de5")
p4009
aS'=V148'
p4010
aNaS"=VLOOKUP(A148,'[1]Annual Leave'!$A:$O,15,FALSE)"
p4011
aS'=SUMIF(record!B:B,report!B148,record!M:M)'
p4012
aS'=SUMIF(record!B:B,report!B148,record!O:O)'
p4013
aS'=SUMIF(record!B:B,report!B148,record!N:N)'
p4014
aS'=SUMIF(record!B:B,report!B148,record!P:P)'
p4015
aVzhoufan@smalltreemedia.com
p4016
aV1250
p4017
aa(lp4018
VAE1865
p4019
aV\u738b\u99a8
p4020
aVWang Xin
p4021
ag3528
ag96
aV8:30-17:34
p4022
aL2L
aS'=G149-L149-M149'
p4023
aS'=G149-J149'
p4024
aS'=L149+M149+N149+O149+T149'
p4025
aS'=L149+M149+N149+O149+P149'
p4026
aS"=VLOOKUP(A149,'[1]201510'!$A:$S,5,FALSE)"
p4027
aS"=VLOOKUP(A149,'[1]201510'!$A:$AG,6,FALSE)"
p4028
aS"=VLOOKUP(A149,'[1]201510'!$A:$U,7,FALSE)"
p4029
aS"=VLOOKUP(A149,'[1]201510'!$A:$R,8,FALSE)"
p4030
aS"=-VLOOKUP(A149,'[1]201510'!$A:$Y,10,FALSE)/8"
p4031
aS'=N149+O149'
p4032
aS'=COUNTIFS(record!B:B,report!B149,record!K:K,"late1")'
p4033
aS'=COUNTIFS(record!B:B,report!B149,record!K:K,"late2")'
p4034
aS'=COUNTIFS(record!B:B,report!B149,record!K:K,"late3")'
p4035
aS'=IF(AND(E149="FTE",F149<>$F$2,G149=MAX(G:G),L149=0,M149=0,Q149<=5,R149=0,S149=0,T149=0,V149=0),"Y","N")'
p4036
aV=COUNTIFS(record!B:B,report!B149,record!K:K,"\u65f7\u5de5\u534a\u5929")/2+COUNTIFS(record!B:B,report!B149,record!K:K,"\u65f7\u5de5")
p4037
aS'=V149'
p4038
aNaS"=VLOOKUP(A149,'[1]Annual Leave'!$A:$O,15,FALSE)"
p4039
aS'=SUMIF(record!B:B,report!B149,record!M:M)'
p4040
aS'=SUMIF(record!B:B,report!B149,record!O:O)'
p4041
aS'=SUMIF(record!B:B,report!B149,record!N:N)'
p4042
aS'=SUMIF(record!B:B,report!B149,record!P:P)'
p4043
aVwangxin@smalltreemedia.com
p4044
aV1251
p4045
aa(lp4046
VAE1866
p4047
aV\u5218\u7eea
p4048
aVLiu Xu
p4049
ag3528
ag2960
aV8:30-17:35
p4050
aL1L
aS'=G150-L150-M150'
p4051
aS'=G150-J150'
p4052
aS'=L150+M150+N150+O150+T150'
p4053
aS'=L150+M150+N150+O150+P150'
p4054
aS"=VLOOKUP(A150,'[1]201510'!$A:$S,5,FALSE)"
p4055
aS"=VLOOKUP(A150,'[1]201510'!$A:$AG,6,FALSE)"
p4056
aS"=VLOOKUP(A150,'[1]201510'!$A:$U,7,FALSE)"
p4057
aS"=VLOOKUP(A150,'[1]201510'!$A:$R,8,FALSE)"
p4058
aS"=-VLOOKUP(A150,'[1]201510'!$A:$Y,10,FALSE)/8"
p4059
aS'=N150+O150'
p4060
aS'=COUNTIFS(record!B:B,report!B150,record!K:K,"late1")'
p4061
aS'=COUNTIFS(record!B:B,report!B150,record!K:K,"late2")'
p4062
aS'=COUNTIFS(record!B:B,report!B150,record!K:K,"late3")'
p4063
aS'=IF(AND(E150="FTE",F150<>$F$2,G150=MAX(G:G),L150=0,M150=0,Q150<=5,R150=0,S150=0,T150=0,V150=0),"Y","N")'
p4064
aV=COUNTIFS(record!B:B,report!B150,record!K:K,"\u65f7\u5de5\u534a\u5929")/2+COUNTIFS(record!B:B,report!B150,record!K:K,"\u65f7\u5de5")
p4065
aS'=V150'
p4066
aNaS"=VLOOKUP(A150,'[1]Annual Leave'!$A:$O,15,FALSE)"
p4067
aS'=SUMIF(record!B:B,report!B150,record!M:M)'
p4068
aS'=SUMIF(record!B:B,report!B150,record!O:O)'
p4069
aS'=SUMIF(record!B:B,report!B150,record!N:N)'
p4070
aS'=SUMIF(record!B:B,report!B150,record!P:P)'
p4071
aNaV1252
p4072
aa.